(dp0
S'maze'
p1
S"(dp0\nI0\n(lp1\n(lp2\n(i__main__\nNode\np3\n(dp4\nS'Type'\np5\nI12\nsba(i__main__\nNode\np6\n(dp7\ng5\nI12\nsba(i__main__\nNode\np8\n(dp9\ng5\nI12\nsba(i__main__\nNode\np10\n(dp11\ng5\nI12\nsba(i__main__\nNode\np12\n(dp13\ng5\nI12\nsba(i__main__\nNode\np14\n(dp15\ng5\nI12\nsba(i__main__\nNode\np16\n(dp17\ng5\nI12\nsba(i__main__\nNode\np18\n(dp19\ng5\nI12\nsba(i__main__\nNode\np20\n(dp21\ng5\nI12\nsba(i__main__\nNode\np22\n(dp23\ng5\nI12\nsba(i__main__\nNode\np24\n(dp25\ng5\nI12\nsba(i__main__\nNode\np26\n(dp27\ng5\nI12\nsba(i__main__\nNode\np28\n(dp29\ng5\nI12\nsbaa(lp30\n(i__main__\nNode\np31\n(dp32\ng5\nI12\nsba(i__main__\nNode\np33\n(dp34\ng5\nI11\nsba(i__main__\nNode\np35\n(dp36\ng5\nI11\nsba(i__main__\nNode\np37\n(dp38\ng5\nI11\nsba(i__main__\nNode\np39\n(dp40\ng5\nI11\nsba(i__main__\nNode\np41\n(dp42\ng5\nI11\nsba(i__main__\nNode\np43\n(dp44\ng5\nI11\nsba(i__main__\nNode\np45\n(dp46\ng5\nI11\nsba(i__main__\nNode\np47\n(dp48\ng5\nI11\nsba(i__main__\nNode\np49\n(dp50\ng5\nI11\nsba(i__main__\nNode\np51\n(dp52\ng5\nI11\nsba(i__main__\nNode\np53\n(dp54\ng5\nI11\nsba(i__main__\nNode\np55\n(dp56\ng5\nI12\nsbaa(lp57\n(i__main__\nNode\np58\n(dp59\ng5\nI12\nsba(i__main__\nNode\np60\n(dp61\ng5\nI11\nsba(i__main__\nNode\np62\n(dp63\ng5\nI11\nsba(i__main__\nNode\np64\n(dp65\ng5\nI11\nsba(i__main__\nNode\np66\n(dp67\ng5\nI11\nsba(i__main__\nNode\np68\n(dp69\ng5\nI11\nsba(i__main__\nNode\np70\n(dp71\ng5\nI11\nsba(i__main__\nNode\np72\n(dp73\ng5\nI11\nsba(i__main__\nNode\np74\n(dp75\ng5\nI11\nsba(i__main__\nNode\np76\n(dp77\ng5\nI11\nsba(i__main__\nNode\np78\n(dp79\ng5\nI11\nsba(i__main__\nNode\np80\n(dp81\ng5\nI11\nsba(i__main__\nNode\np82\n(dp83\ng5\nI12\nsbaa(lp84\n(i__main__\nNode\np85\n(dp86\ng5\nI12\nsba(i__main__\nNode\np87\n(dp88\ng5\nI11\nsba(i__main__\nNode\np89\n(dp90\ng5\nI11\nsba(i__main__\nNode\np91\n(dp92\ng5\nI11\nsba(i__main__\nNode\np93\n(dp94\ng5\nI11\nsba(i__main__\nNode\np95\n(dp96\ng5\nI11\nsba(i__main__\nNode\np97\n(dp98\ng5\nI11\nsba(i__main__\nNode\np99\n(dp100\ng5\nI11\nsba(i__main__\nNode\np101\n(dp102\ng5\nI11\nsba(i__main__\nNode\np103\n(dp104\ng5\nI11\nsba(i__main__\nNode\np105\n(dp106\ng5\nI11\nsba(i__main__\nNode\np107\n(dp108\ng5\nI11\nsba(i__main__\nNode\np109\n(dp110\ng5\nI12\nsbaa(lp111\n(i__main__\nNode\np112\n(dp113\ng5\nI12\nsba(i__main__\nNode\np114\n(dp115\ng5\nI11\nsba(i__main__\nNode\np116\n(dp117\ng5\nI11\nsba(i__main__\nNode\np118\n(dp119\ng5\nI11\nsba(i__main__\nNode\np120\n(dp121\ng5\nI11\nsba(i__main__\nNode\np122\n(dp123\ng5\nI11\nsba(i__main__\nNode\np124\n(dp125\ng5\nI11\nsba(i__main__\nNode\np126\n(dp127\ng5\nI11\nsba(i__main__\nNode\np128\n(dp129\ng5\nI11\nsba(i__main__\nNode\np130\n(dp131\ng5\nI11\nsba(i__main__\nNode\np132\n(dp133\ng5\nI11\nsba(i__main__\nNode\np134\n(dp135\ng5\nI11\nsba(i__main__\nNode\np136\n(dp137\ng5\nI12\nsbaa(lp138\n(i__main__\nNode\np139\n(dp140\ng5\nI12\nsba(i__main__\nNode\np141\n(dp142\ng5\nI11\nsba(i__main__\nNode\np143\n(dp144\ng5\nI11\nsba(i__main__\nNode\np145\n(dp146\ng5\nI11\nsba(i__main__\nNode\np147\n(dp148\ng5\nI11\nsba(i__main__\nNode\np149\n(dp150\ng5\nI11\nsba(i__main__\nNode\np151\n(dp152\ng5\nI11\nsba(i__main__\nNode\np153\n(dp154\ng5\nI11\nsba(i__main__\nNode\np155\n(dp156\ng5\nI11\nsba(i__main__\nNode\np157\n(dp158\ng5\nI11\nsba(i__main__\nNode\np159\n(dp160\ng5\nI11\nsba(i__main__\nNode\np161\n(dp162\ng5\nI11\nsba(i__main__\nNode\np163\n(dp164\ng5\nI12\nsbaa(lp165\n(i__main__\nNode\np166\n(dp167\ng5\nI12\nsba(i__main__\nNode\np168\n(dp169\ng5\nI11\nsba(i__main__\nNode\np170\n(dp171\ng5\nI11\nsba(i__main__\nNode\np172\n(dp173\ng5\nI11\nsba(i__main__\nNode\np174\n(dp175\ng5\nI11\nsba(i__main__\nNode\np176\n(dp177\ng5\nI11\nsba(i__main__\nNode\np178\n(dp179\ng5\nI11\nsba(i__main__\nNode\np180\n(dp181\ng5\nI11\nsba(i__main__\nNode\np182\n(dp183\ng5\nI11\nsba(i__main__\nNode\np184\n(dp185\ng5\nI11\nsba(i__main__\nNode\np186\n(dp187\ng5\nI11\nsba(i__main__\nNode\np188\n(dp189\ng5\nI11\nsba(i__main__\nNode\np190\n(dp191\ng5\nI12\nsbaa(lp192\n(i__main__\nNode\np193\n(dp194\ng5\nI12\nsba(i__main__\nNode\np195\n(dp196\ng5\nI11\nsba(i__main__\nNode\np197\n(dp198\ng5\nI11\nsba(i__main__\nNode\np199\n(dp200\ng5\nI11\nsba(i__main__\nNode\np201\n(dp202\ng5\nI11\nsba(i__main__\nNode\np203\n(dp204\ng5\nI11\nsba(i__main__\nNode\np205\n(dp206\ng5\nI11\nsba(i__main__\nNode\np207\n(dp208\ng5\nI11\nsba(i__main__\nNode\np209\n(dp210\ng5\nI11\nsba(i__main__\nNode\np211\n(dp212\ng5\nI11\nsba(i__main__\nNode\np213\n(dp214\ng5\nI11\nsba(i__main__\nNode\np215\n(dp216\ng5\nI11\nsba(i__main__\nNode\np217\n(dp218\ng5\nI12\nsbaa(lp219\n(i__main__\nNode\np220\n(dp221\ng5\nI12\nsba(i__main__\nNode\np222\n(dp223\ng5\nI11\nsba(i__main__\nNode\np224\n(dp225\ng5\nI11\nsba(i__main__\nNode\np226\n(dp227\ng5\nI11\nsba(i__main__\nNode\np228\n(dp229\ng5\nI11\nsba(i__main__\nNode\np230\n(dp231\ng5\nI11\nsba(i__main__\nNode\np232\n(dp233\ng5\nI11\nsba(i__main__\nNode\np234\n(dp235\ng5\nI11\nsba(i__main__\nNode\np236\n(dp237\ng5\nI11\nsba(i__main__\nNode\np238\n(dp239\ng5\nI11\nsba(i__main__\nNode\np240\n(dp241\ng5\nI11\nsba(i__main__\nNode\np242\n(dp243\ng5\nI11\nsba(i__main__\nNode\np244\n(dp245\ng5\nI12\nsbaa(lp246\n(i__main__\nNode\np247\n(dp248\ng5\nI12\nsba(i__main__\nNode\np249\n(dp250\ng5\nI11\nsba(i__main__\nNode\np251\n(dp252\ng5\nI11\nsba(i__main__\nNode\np253\n(dp254\ng5\nI11\nsba(i__main__\nNode\np255\n(dp256\ng5\nI11\nsba(i__main__\nNode\np257\n(dp258\ng5\nI11\nsba(i__main__\nNode\np259\n(dp260\ng5\nI11\nsba(i__main__\nNode\np261\n(dp262\ng5\nI11\nsba(i__main__\nNode\np263\n(dp264\ng5\nI11\nsba(i__main__\nNode\np265\n(dp266\ng5\nI11\nsba(i__main__\nNode\np267\n(dp268\ng5\nI11\nsba(i__main__\nNode\np269\n(dp270\ng5\nI11\nsba(i__main__\nNode\np271\n(dp272\ng5\nI12\nsbaa(lp273\n(i__main__\nNode\np274\n(dp275\ng5\nI12\nsba(i__main__\nNode\np276\n(dp277\ng5\nI11\nsba(i__main__\nNode\np278\n(dp279\ng5\nI11\nsba(i__main__\nNode\np280\n(dp281\ng5\nI11\nsba(i__main__\nNode\np282\n(dp283\ng5\nI11\nsba(i__main__\nNode\np284\n(dp285\ng5\nI11\nsba(i__main__\nNode\np286\n(dp287\ng5\nI11\nsba(i__main__\nNode\np288\n(dp289\ng5\nI11\nsba(i__main__\nNode\np290\n(dp291\ng5\nI11\nsba(i__main__\nNode\np292\n(dp293\ng5\nI11\nsba(i__main__\nNode\np294\n(dp295\ng5\nI11\nsba(i__main__\nNode\np296\n(dp297\ng5\nI11\nsba(i__main__\nNode\np298\n(dp299\ng5\nI12\nsbaa(lp300\n(i__main__\nNode\np301\n(dp302\ng5\nI12\nsba(i__main__\nNode\np303\n(dp304\ng5\nI11\nsba(i__main__\nNode\np305\n(dp306\ng5\nI11\nsba(i__main__\nNode\np307\n(dp308\ng5\nI11\nsba(i__main__\nNode\np309\n(dp310\ng5\nI11\nsba(i__main__\nNode\np311\n(dp312\ng5\nI11\nsba(i__main__\nNode\np313\n(dp314\ng5\nI11\nsba(i__main__\nNode\np315\n(dp316\ng5\nI11\nsba(i__main__\nNode\np317\n(dp318\ng5\nI11\nsba(i__main__\nNode\np319\n(dp320\ng5\nI11\nsba(i__main__\nNode\np321\n(dp322\ng5\nI11\nsba(i__main__\nNode\np323\n(dp324\ng5\nI11\nsba(i__main__\nNode\np325\n(dp326\ng5\nI12\nsbaa(lp327\n(i__main__\nNode\np328\n(dp329\ng5\nI12\nsba(i__main__\nNode\np330\n(dp331\ng5\nI12\nsba(i__main__\nNode\np332\n(dp333\ng5\nI12\nsba(i__main__\nNode\np334\n(dp335\ng5\nI12\nsba(i__main__\nNode\np336\n(dp337\ng5\nI12\nsba(i__main__\nNode\np338\n(dp339\ng5\nI12\nsba(i__main__\nNode\np340\n(dp341\ng5\nI12\nsba(i__main__\nNode\np342\n(dp343\ng5\nI12\nsba(i__main__\nNode\np344\n(dp345\ng5\nI12\nsba(i__main__\nNode\np346\n(dp347\ng5\nI12\nsba(i__main__\nNode\np348\n(dp349\ng5\nI12\nsba(i__main__\nNode\np350\n(dp351\ng5\nI12\nsba(i__main__\nNode\np352\n(dp353\ng5\nI12\nsbaasI1\n(lp354\n(lp355\n(i__main__\nNode\np356\n(dp357\ng5\nI12\nsba(i__main__\nNode\np358\n(dp359\ng5\nI12\nsba(i__main__\nNode\np360\n(dp361\ng5\nI12\nsba(i__main__\nNode\np362\n(dp363\ng5\nI12\nsba(i__main__\nNode\np364\n(dp365\ng5\nI12\nsba(i__main__\nNode\np366\n(dp367\ng5\nI12\nsba(i__main__\nNode\np368\n(dp369\ng5\nI12\nsba(i__main__\nNode\np370\n(dp371\ng5\nI12\nsba(i__main__\nNode\np372\n(dp373\ng5\nI12\nsba(i__main__\nNode\np374\n(dp375\ng5\nI12\nsba(i__main__\nNode\np376\n(dp377\ng5\nI12\nsba(i__main__\nNode\np378\n(dp379\ng5\nI12\nsba(i__main__\nNode\np380\n(dp381\ng5\nI12\nsbaa(lp382\n(i__main__\nNode\np383\n(dp384\ng5\nI12\nsba(i__main__\nNode\np385\n(dp386\ng5\nI11\nsba(i__main__\nNode\np387\n(dp388\ng5\nI12\nsba(i__main__\nNode\np389\n(dp390\ng5\nI11\nsba(i__main__\nNode\np391\n(dp392\ng5\nI15\nsba(i__main__\nNode\np393\n(dp394\ng5\nI11\nsba(i__main__\nNode\np395\n(dp396\ng5\nI12\nsba(i__main__\nNode\np397\n(dp398\ng5\nI11\nsba(i__main__\nNode\np399\n(dp400\ng5\nI12\nsba(i__main__\nNode\np401\n(dp402\ng5\nI11\nsba(i__main__\nNode\np403\n(dp404\ng5\nI11\nsba(i__main__\nNode\np405\n(dp406\ng5\nI11\nsba(i__main__\nNode\np407\n(dp408\ng5\nI12\nsbaa(lp409\n(i__main__\nNode\np410\n(dp411\ng5\nI12\nsba(i__main__\nNode\np412\n(dp413\ng5\nI11\nsba(i__main__\nNode\np414\n(dp415\ng5\nI12\nsba(i__main__\nNode\np416\n(dp417\ng5\nI11\nsba(i__main__\nNode\np418\n(dp419\ng5\nI12\nsba(i__main__\nNode\np420\n(dp421\ng5\nI11\nsba(i__main__\nNode\np422\n(dp423\ng5\nI12\nsba(i__main__\nNode\np424\n(dp425\ng5\nI11\nsba(i__main__\nNode\np426\n(dp427\ng5\nI15\nsba(i__main__\nNode\np428\n(dp429\ng5\nI11\nsba(i__main__\nNode\np430\n(dp431\ng5\nI11\nsba(i__main__\nNode\np432\n(dp433\ng5\nI11\nsba(i__main__\nNode\np434\n(dp435\ng5\nI12\nsbaa(lp436\n(i__main__\nNode\np437\n(dp438\ng5\nI12\nsba(i__main__\nNode\np439\n(dp440\ng5\nI11\nsba(i__main__\nNode\np441\n(dp442\ng5\nI12\nsba(i__main__\nNode\np443\n(dp444\ng5\nI11\nsba(i__main__\nNode\np445\n(dp446\ng5\nI12\nsba(i__main__\nNode\np447\n(dp448\ng5\nI11\nsba(i__main__\nNode\np449\n(dp450\ng5\nI12\nsba(i__main__\nNode\np451\n(dp452\ng5\nI11\nsba(i__main__\nNode\np453\n(dp454\ng5\nI12\nsba(i__main__\nNode\np455\n(dp456\ng5\nI12\nsba(i__main__\nNode\np457\n(dp458\ng5\nI12\nsba(i__main__\nNode\np459\n(dp460\ng5\nI15\nsba(i__main__\nNode\np461\n(dp462\ng5\nI12\nsbaa(lp463\n(i__main__\nNode\np464\n(dp465\ng5\nI12\nsba(i__main__\nNode\np466\n(dp467\ng5\nI15\nsba(i__main__\nNode\np468\n(dp469\ng5\nI12\nsba(i__main__\nNode\np470\n(dp471\ng5\nI15\nsba(i__main__\nNode\np472\n(dp473\ng5\nI12\nsba(i__main__\nNode\np474\n(dp475\ng5\nI11\nsba(i__main__\nNode\np476\n(dp477\ng5\nI12\nsba(i__main__\nNode\np478\n(dp479\ng5\nI11\nsba(i__main__\nNode\np480\n(dp481\ng5\nI12\nsba(i__main__\nNode\np482\n(dp483\ng5\nI11\nsba(i__main__\nNode\np484\n(dp485\ng5\nI11\nsba(i__main__\nNode\np486\n(dp487\ng5\nI11\nsba(i__main__\nNode\np488\n(dp489\ng5\nI12\nsbaa(lp490\n(i__main__\nNode\np491\n(dp492\ng5\nI12\nsba(i__main__\nNode\np493\n(dp494\ng5\nI11\nsba(i__main__\nNode\np495\n(dp496\ng5\nI14\nsS'Value'\np497\nI1\nsba(i__main__\nNode\np498\n(dp499\ng5\nI11\nsba(i__main__\nNode\np500\n(dp501\ng5\nI12\nsba(i__main__\nNode\np502\n(dp503\ng5\nI11\nsba(i__main__\nNode\np504\n(dp505\ng5\nI15\nsba(i__main__\nNode\np506\n(dp507\ng5\nI11\nsba(i__main__\nNode\np508\n(dp509\ng5\nI12\nsba(i__main__\nNode\np510\n(dp511\ng5\nI12\nsba(i__main__\nNode\np512\n(dp513\ng5\nI12\nsba(i__main__\nNode\np514\n(dp515\ng5\nI12\nsba(i__main__\nNode\np516\n(dp517\ng5\nI12\nsbaa(lp518\n(i__main__\nNode\np519\n(dp520\ng5\nI12\nsba(i__main__\nNode\np521\n(dp522\ng5\nI11\nsba(i__main__\nNode\np523\n(dp524\ng5\nI11\nsba(i__main__\nNode\np525\n(dp526\ng5\nI11\nsba(i__main__\nNode\np527\n(dp528\ng5\nI12\nsba(i__main__\nNode\np529\n(dp530\ng5\nI11\nsba(i__main__\nNode\np531\n(dp532\ng5\nI12\nsba(i__main__\nNode\np533\n(dp534\ng5\nI11\nsba(i__main__\nNode\np535\n(dp536\ng5\nI12\nsba(i__main__\nNode\np537\n(dp538\ng5\nI11\nsba(i__main__\nNode\np539\n(dp540\ng5\nI12\nsba(i__main__\nNode\np541\n(dp542\ng5\nI14\nsg497\nI2\nsba(i__main__\nNode\np543\n(dp544\ng5\nI12\nsbaa(lp545\n(i__main__\nNode\np546\n(dp547\ng5\nI12\nsba(i__main__\nNode\np548\n(dp549\ng5\nI12\nsba(i__main__\nNode\np550\n(dp551\ng5\nI12\nsba(i__main__\nNode\np552\n(dp553\ng5\nI12\nsba(i__main__\nNode\np554\n(dp555\ng5\nI12\nsba(i__main__\nNode\np556\n(dp557\ng5\nI11\nsba(i__main__\nNode\np558\n(dp559\ng5\nI12\nsba(i__main__\nNode\np560\n(dp561\ng5\nI11\nsba(i__main__\nNode\np562\n(dp563\ng5\nI15\nsba(i__main__\nNode\np564\n(dp565\ng5\nI11\nsba(i__main__\nNode\np566\n(dp567\ng5\nI12\nsba(i__main__\nNode\np568\n(dp569\ng5\nI11\nsba(i__main__\nNode\np570\n(dp571\ng5\nI12\nsbaa(lp572\n(i__main__\nNode\np573\n(dp574\ng5\nI12\nsba(i__main__\nNode\np575\n(dp576\ng5\nI11\nsba(i__main__\nNode\np577\n(dp578\ng5\nI11\nsba(i__main__\nNode\np579\n(dp580\ng5\nI11\nsba(i__main__\nNode\np581\n(dp582\ng5\nI15\nsba(i__main__\nNode\np583\n(dp584\ng5\nI11\nsba(i__main__\nNode\np585\n(dp586\ng5\nI12\nsba(i__main__\nNode\np587\n(dp588\ng5\nI11\nsba(i__main__\nNode\np589\n(dp590\ng5\nI12\nsba(i__main__\nNode\np591\n(dp592\ng5\nI11\nsba(i__main__\nNode\np593\n(dp594\ng5\nI12\nsba(i__main__\nNode\np595\n(dp596\ng5\nI11\nsba(i__main__\nNode\np597\n(dp598\ng5\nI12\nsbaa(lp599\n(i__main__\nNode\np600\n(dp601\ng5\nI12\nsba(i__main__\nNode\np602\n(dp603\ng5\nI12\nsba(i__main__\nNode\np604\n(dp605\ng5\nI15\nsba(i__main__\nNode\np606\n(dp607\ng5\nI12\nsba(i__main__\nNode\np608\n(dp609\ng5\nI12\nsba(i__main__\nNode\np610\n(dp611\ng5\nI15\nsba(i__main__\nNode\np612\n(dp613\ng5\nI12\nsba(i__main__\nNode\np614\n(dp615\ng5\nI12\nsba(i__main__\nNode\np616\n(dp617\ng5\nI12\nsba(i__main__\nNode\np618\n(dp619\ng5\nI12\nsba(i__main__\nNode\np620\n(dp621\ng5\nI12\nsba(i__main__\nNode\np622\n(dp623\ng5\nI15\nsba(i__main__\nNode\np624\n(dp625\ng5\nI12\nsbaa(lp626\n(i__main__\nNode\np627\n(dp628\ng5\nI12\nsba(i__main__\nNode\np629\n(dp630\ng5\nI11\nsba(i__main__\nNode\np631\n(dp632\ng5\nI11\nsba(i__main__\nNode\np633\n(dp634\ng5\nI11\nsba(i__main__\nNode\np635\n(dp636\ng5\nI12\nsba(i__main__\nNode\np637\n(dp638\ng5\nI11\nsba(i__main__\nNode\np639\n(dp640\ng5\nI11\nsba(i__main__\nNode\np641\n(dp642\ng5\nI15\nsba(i__main__\nNode\np643\n(dp644\ng5\nI11\nsba(i__main__\nNode\np645\n(dp646\ng5\nI12\nsba(i__main__\nNode\np647\n(dp648\ng5\nI11\nsba(i__main__\nNode\np649\n(dp650\ng5\nI11\nsba(i__main__\nNode\np651\n(dp652\ng5\nI12\nsbaa(lp653\n(i__main__\nNode\np654\n(dp655\ng5\nI12\nsba(i__main__\nNode\np656\n(dp657\ng5\nI11\nsba(i__main__\nNode\np658\n(dp659\ng5\nI11\nsba(i__main__\nNode\np660\n(dp661\ng5\nI11\nsba(i__main__\nNode\np662\n(dp663\ng5\nI12\nsba(i__main__\nNode\np664\n(dp665\ng5\nI11\nsba(i__main__\nNode\np666\n(dp667\ng5\nI11\nsba(i__main__\nNode\np668\n(dp669\ng5\nI12\nsba(i__main__\nNode\np670\n(dp671\ng5\nI11\nsba(i__main__\nNode\np672\n(dp673\ng5\nI15\nsba(i__main__\nNode\np674\n(dp675\ng5\nI11\nsba(i__main__\nNode\np676\n(dp677\ng5\nI11\nsba(i__main__\nNode\np678\n(dp679\ng5\nI12\nsbaa(lp680\n(i__main__\nNode\np681\n(dp682\ng5\nI12\nsba(i__main__\nNode\np683\n(dp684\ng5\nI12\nsba(i__main__\nNode\np685\n(dp686\ng5\nI12\nsba(i__main__\nNode\np687\n(dp688\ng5\nI12\nsba(i__main__\nNode\np689\n(dp690\ng5\nI12\nsba(i__main__\nNode\np691\n(dp692\ng5\nI12\nsba(i__main__\nNode\np693\n(dp694\ng5\nI12\nsba(i__main__\nNode\np695\n(dp696\ng5\nI12\nsba(i__main__\nNode\np697\n(dp698\ng5\nI12\nsba(i__main__\nNode\np699\n(dp700\ng5\nI12\nsba(i__main__\nNode\np701\n(dp702\ng5\nI12\nsba(i__main__\nNode\np703\n(dp704\ng5\nI12\nsba(i__main__\nNode\np705\n(dp706\ng5\nI12\nsbaasI2\n(lp707\n(lp708\n(i__main__\nNode\np709\n(dp710\ng5\nI12\nsba(i__main__\nNode\np711\n(dp712\ng5\nI12\nsba(i__main__\nNode\np713\n(dp714\ng5\nI12\nsba(i__main__\nNode\np715\n(dp716\ng5\nI12\nsba(i__main__\nNode\np717\n(dp718\ng5\nI12\nsba(i__main__\nNode\np719\n(dp720\ng5\nI12\nsba(i__main__\nNode\np721\n(dp722\ng5\nI12\nsba(i__main__\nNode\np723\n(dp724\ng5\nI12\nsba(i__main__\nNode\np725\n(dp726\ng5\nI12\nsba(i__main__\nNode\np727\n(dp728\ng5\nI12\nsba(i__main__\nNode\np729\n(dp730\ng5\nI12\nsba(i__main__\nNode\np731\n(dp732\ng5\nI12\nsba(i__main__\nNode\np733\n(dp734\ng5\nI12\nsbaa(lp735\n(i__main__\nNode\np736\n(dp737\ng5\nI12\nsba(i__main__\nNode\np738\n(dp739\ng5\nI11\nsba(i__main__\nNode\np740\n(dp741\ng5\nI11\nsba(i__main__\nNode\np742\n(dp743\ng5\nI15\nsba(i__main__\nNode\np744\n(dp745\ng5\nI11\nsba(i__main__\nNode\np746\n(dp747\ng5\nI12\nsba(i__main__\nNode\np748\n(dp749\ng5\nI11\nsba(i__main__\nNode\np750\n(dp751\ng5\nI11\nsba(i__main__\nNode\np752\n(dp753\ng5\nI12\nsba(i__main__\nNode\np754\n(dp755\ng5\nI11\nsba(i__main__\nNode\np756\n(dp757\ng5\nI12\nsba(i__main__\nNode\np758\n(dp759\ng5\nI11\nsba(i__main__\nNode\np760\n(dp761\ng5\nI12\nsbaa(lp762\n(i__main__\nNode\np763\n(dp764\ng5\nI12\nsba(i__main__\nNode\np765\n(dp766\ng5\nI11\nsba(i__main__\nNode\np767\n(dp768\ng5\nI11\nsba(i__main__\nNode\np769\n(dp770\ng5\nI12\nsba(i__main__\nNode\np771\n(dp772\ng5\nI11\nsba(i__main__\nNode\np773\n(dp774\ng5\nI15\nsba(i__main__\nNode\np775\n(dp776\ng5\nI11\nsba(i__main__\nNode\np777\n(dp778\ng5\nI11\nsba(i__main__\nNode\np779\n(dp780\ng5\nI15\nsba(i__main__\nNode\np781\n(dp782\ng5\nI11\nsba(i__main__\nNode\np783\n(dp784\ng5\nI15\nsba(i__main__\nNode\np785\n(dp786\ng5\nI11\nsba(i__main__\nNode\np787\n(dp788\ng5\nI12\nsbaa(lp789\n(i__main__\nNode\np790\n(dp791\ng5\nI12\nsba(i__main__\nNode\np792\n(dp793\ng5\nI11\nsba(i__main__\nNode\np794\n(dp795\ng5\nI11\nsba(i__main__\nNode\np796\n(dp797\ng5\nI12\nsba(i__main__\nNode\np798\n(dp799\ng5\nI12\nsba(i__main__\nNode\np800\n(dp801\ng5\nI12\nsba(i__main__\nNode\np802\n(dp803\ng5\nI12\nsba(i__main__\nNode\np804\n(dp805\ng5\nI12\nsba(i__main__\nNode\np806\n(dp807\ng5\nI12\nsba(i__main__\nNode\np808\n(dp809\ng5\nI15\nsba(i__main__\nNode\np810\n(dp811\ng5\nI12\nsba(i__main__\nNode\np812\n(dp813\ng5\nI11\nsba(i__main__\nNode\np814\n(dp815\ng5\nI12\nsbaa(lp816\n(i__main__\nNode\np817\n(dp818\ng5\nI12\nsba(i__main__\nNode\np819\n(dp820\ng5\nI15\nsba(i__main__\nNode\np821\n(dp822\ng5\nI12\nsba(i__main__\nNode\np823\n(dp824\ng5\nI12\nsba(i__main__\nNode\np825\n(dp826\ng5\nI11\nsba(i__main__\nNode\np827\n(dp828\ng5\nI11\nsba(i__main__\nNode\np829\n(dp830\ng5\nI11\nsba(i__main__\nNode\np831\n(dp832\ng5\nI11\nsba(i__main__\nNode\np833\n(dp834\ng5\nI11\nsba(i__main__\nNode\np835\n(dp836\ng5\nI11\nsba(i__main__\nNode\np837\n(dp838\ng5\nI12\nsba(i__main__\nNode\np839\n(dp840\ng5\nI11\nsba(i__main__\nNode\np841\n(dp842\ng5\nI12\nsbaa(lp843\n(i__main__\nNode\np844\n(dp845\ng5\nI12\nsba(i__main__\nNode\np846\n(dp847\ng5\nI11\nsba(i__main__\nNode\np848\n(dp849\ng5\nI14\nsg497\nI2\nsba(i__main__\nNode\np850\n(dp851\ng5\nI12\nsba(i__main__\nNode\np852\n(dp853\ng5\nI15\nsba(i__main__\nNode\np854\n(dp855\ng5\nI12\nsba(i__main__\nNode\np856\n(dp857\ng5\nI12\nsba(i__main__\nNode\np858\n(dp859\ng5\nI12\nsba(i__main__\nNode\np860\n(dp861\ng5\nI12\nsba(i__main__\nNode\np862\n(dp863\ng5\nI12\nsba(i__main__\nNode\np864\n(dp865\ng5\nI12\nsba(i__main__\nNode\np866\n(dp867\ng5\nI11\nsba(i__main__\nNode\np868\n(dp869\ng5\nI12\nsbaa(lp870\n(i__main__\nNode\np871\n(dp872\ng5\nI12\nsba(i__main__\nNode\np873\n(dp874\ng5\nI15\nsba(i__main__\nNode\np875\n(dp876\ng5\nI12\nsba(i__main__\nNode\np877\n(dp878\ng5\nI12\nsba(i__main__\nNode\np879\n(dp880\ng5\nI11\nsba(i__main__\nNode\np881\n(dp882\ng5\nI11\nsba(i__main__\nNode\np883\n(dp884\ng5\nI11\nsba(i__main__\nNode\np885\n(dp886\ng5\nI15\nsba(i__main__\nNode\np887\n(dp888\ng5\nI11\nsba(i__main__\nNode\np889\n(dp890\ng5\nI11\nsba(i__main__\nNode\np891\n(dp892\ng5\nI12\nsba(i__main__\nNode\np893\n(dp894\ng5\nI11\nsba(i__main__\nNode\np895\n(dp896\ng5\nI12\nsbaa(lp897\n(i__main__\nNode\np898\n(dp899\ng5\nI12\nsba(i__main__\nNode\np900\n(dp901\ng5\nI11\nsba(i__main__\nNode\np902\n(dp903\ng5\nI11\nsba(i__main__\nNode\np904\n(dp905\ng5\nI12\nsba(i__main__\nNode\np906\n(dp907\ng5\nI11\nsba(i__main__\nNode\np908\n(dp909\ng5\nI11\nsba(i__main__\nNode\np910\n(dp911\ng5\nI11\nsba(i__main__\nNode\np912\n(dp913\ng5\nI12\nsba(i__main__\nNode\np914\n(dp915\ng5\nI11\nsba(i__main__\nNode\np916\n(dp917\ng5\nI11\nsba(i__main__\nNode\np918\n(dp919\ng5\nI12\nsba(i__main__\nNode\np920\n(dp921\ng5\nI11\nsba(i__main__\nNode\np922\n(dp923\ng5\nI12\nsbaa(lp924\n(i__main__\nNode\np925\n(dp926\ng5\nI12\nsba(i__main__\nNode\np927\n(dp928\ng5\nI11\nsba(i__main__\nNode\np929\n(dp930\ng5\nI11\nsba(i__main__\nNode\np931\n(dp932\ng5\nI12\nsba(i__main__\nNode\np933\n(dp934\ng5\nI12\nsba(i__main__\nNode\np935\n(dp936\ng5\nI12\nsba(i__main__\nNode\np937\n(dp938\ng5\nI12\nsba(i__main__\nNode\np939\n(dp940\ng5\nI12\nsba(i__main__\nNode\np941\n(dp942\ng5\nI12\nsba(i__main__\nNode\np943\n(dp944\ng5\nI12\nsba(i__main__\nNode\np945\n(dp946\ng5\nI12\nsba(i__main__\nNode\np947\n(dp948\ng5\nI11\nsba(i__main__\nNode\np949\n(dp950\ng5\nI12\nsbaa(lp951\n(i__main__\nNode\np952\n(dp953\ng5\nI12\nsba(i__main__\nNode\np954\n(dp955\ng5\nI12\nsba(i__main__\nNode\np956\n(dp957\ng5\nI12\nsba(i__main__\nNode\np958\n(dp959\ng5\nI12\nsba(i__main__\nNode\np960\n(dp961\ng5\nI11\nsba(i__main__\nNode\np962\n(dp963\ng5\nI12\nsba(i__main__\nNode\np964\n(dp965\ng5\nI11\nsba(i__main__\nNode\np966\n(dp967\ng5\nI11\nsba(i__main__\nNode\np968\n(dp969\ng5\nI12\nsba(i__main__\nNode\np970\n(dp971\ng5\nI11\nsba(i__main__\nNode\np972\n(dp973\ng5\nI15\nsba(i__main__\nNode\np974\n(dp975\ng5\nI11\nsba(i__main__\nNode\np976\n(dp977\ng5\nI12\nsbaa(lp978\n(i__main__\nNode\np979\n(dp980\ng5\nI12\nsba(i__main__\nNode\np981\n(dp982\ng5\nI11\nsba(i__main__\nNode\np983\n(dp984\ng5\nI11\nsba(i__main__\nNode\np985\n(dp986\ng5\nI12\nsba(i__main__\nNode\np987\n(dp988\ng5\nI11\nsba(i__main__\nNode\np989\n(dp990\ng5\nI12\nsba(i__main__\nNode\np991\n(dp992\ng5\nI11\nsba(i__main__\nNode\np993\n(dp994\ng5\nI11\nsba(i__main__\nNode\np995\n(dp996\ng5\nI15\nsba(i__main__\nNode\np997\n(dp998\ng5\nI11\nsba(i__main__\nNode\np999\n(dp1000\ng5\nI12\nsba(i__main__\nNode\np1001\n(dp1002\ng5\nI11\nsba(i__main__\nNode\np1003\n(dp1004\ng5\nI12\nsbaa(lp1005\n(i__main__\nNode\np1006\n(dp1007\ng5\nI12\nsba(i__main__\nNode\np1008\n(dp1009\ng5\nI11\nsba(i__main__\nNode\np1010\n(dp1011\ng5\nI11\nsba(i__main__\nNode\np1012\n(dp1013\ng5\nI15\nsba(i__main__\nNode\np1014\n(dp1015\ng5\nI11\nsba(i__main__\nNode\np1016\n(dp1017\ng5\nI15\nsba(i__main__\nNode\np1018\n(dp1019\ng5\nI11\nsba(i__main__\nNode\np1020\n(dp1021\ng5\nI11\nsba(i__main__\nNode\np1022\n(dp1023\ng5\nI12\nsba(i__main__\nNode\np1024\n(dp1025\ng5\nI11\nsba(i__main__\nNode\np1026\n(dp1027\ng5\nI12\nsba(i__main__\nNode\np1028\n(dp1029\ng5\nI14\nsg497\nI1\nsba(i__main__\nNode\np1030\n(dp1031\ng5\nI12\nsbaa(lp1032\n(i__main__\nNode\np1033\n(dp1034\ng5\nI12\nsba(i__main__\nNode\np1035\n(dp1036\ng5\nI12\nsba(i__main__\nNode\np1037\n(dp1038\ng5\nI12\nsba(i__main__\nNode\np1039\n(dp1040\ng5\nI12\nsba(i__main__\nNode\np1041\n(dp1042\ng5\nI12\nsba(i__main__\nNode\np1043\n(dp1044\ng5\nI12\nsba(i__main__\nNode\np1045\n(dp1046\ng5\nI12\nsba(i__main__\nNode\np1047\n(dp1048\ng5\nI12\nsba(i__main__\nNode\np1049\n(dp1050\ng5\nI12\nsba(i__main__\nNode\np1051\n(dp1052\ng5\nI12\nsba(i__main__\nNode\np1053\n(dp1054\ng5\nI12\nsba(i__main__\nNode\np1055\n(dp1056\ng5\nI12\nsba(i__main__\nNode\np1057\n(dp1058\ng5\nI12\nsbaasI3\n(lp1059\n(lp1060\n(i__main__\nNode\np1061\n(dp1062\ng5\nI12\nsba(i__main__\nNode\np1063\n(dp1064\ng5\nI12\nsba(i__main__\nNode\np1065\n(dp1066\ng5\nI12\nsba(i__main__\nNode\np1067\n(dp1068\ng5\nI12\nsba(i__main__\nNode\np1069\n(dp1070\ng5\nI12\nsba(i__main__\nNode\np1071\n(dp1072\ng5\nI12\nsba(i__main__\nNode\np1073\n(dp1074\ng5\nI12\nsba(i__main__\nNode\np1075\n(dp1076\ng5\nI12\nsba(i__main__\nNode\np1077\n(dp1078\ng5\nI12\nsba(i__main__\nNode\np1079\n(dp1080\ng5\nI12\nsba(i__main__\nNode\np1081\n(dp1082\ng5\nI12\nsba(i__main__\nNode\np1083\n(dp1084\ng5\nI12\nsba(i__main__\nNode\np1085\n(dp1086\ng5\nI12\nsbaa(lp1087\n(i__main__\nNode\np1088\n(dp1089\ng5\nI12\nsba(i__main__\nNode\np1090\n(dp1091\ng5\nI11\nsba(i__main__\nNode\np1092\n(dp1093\ng5\nI11\nsba(i__main__\nNode\np1094\n(dp1095\ng5\nI11\nsba(i__main__\nNode\np1096\n(dp1097\ng5\nI11\nsba(i__main__\nNode\np1098\n(dp1099\ng5\nI11\nsba(i__main__\nNode\np1100\n(dp1101\ng5\nI11\nsba(i__main__\nNode\np1102\n(dp1103\ng5\nI11\nsba(i__main__\nNode\np1104\n(dp1105\ng5\nI12\nsba(i__main__\nNode\np1106\n(dp1107\ng5\nI11\nsba(i__main__\nNode\np1108\n(dp1109\ng5\nI11\nsba(i__main__\nNode\np1110\n(dp1111\ng5\nI11\nsba(i__main__\nNode\np1112\n(dp1113\ng5\nI12\nsbaa(lp1114\n(i__main__\nNode\np1115\n(dp1116\ng5\nI12\nsba(i__main__\nNode\np1117\n(dp1118\ng5\nI11\nsba(i__main__\nNode\np1119\n(dp1120\ng5\nI11\nsba(i__main__\nNode\np1121\n(dp1122\ng5\nI11\nsba(i__main__\nNode\np1123\n(dp1124\ng5\nI11\nsba(i__main__\nNode\np1125\n(dp1126\ng5\nI11\nsba(i__main__\nNode\np1127\n(dp1128\ng5\nI11\nsba(i__main__\nNode\np1129\n(dp1130\ng5\nI11\nsba(i__main__\nNode\np1131\n(dp1132\ng5\nI12\nsba(i__main__\nNode\np1133\n(dp1134\ng5\nI12\nsba(i__main__\nNode\np1135\n(dp1136\ng5\nI12\nsba(i__main__\nNode\np1137\n(dp1138\ng5\nI15\nsba(i__main__\nNode\np1139\n(dp1140\ng5\nI12\nsbaa(lp1141\n(i__main__\nNode\np1142\n(dp1143\ng5\nI12\nsba(i__main__\nNode\np1144\n(dp1145\ng5\nI11\nsba(i__main__\nNode\np1146\n(dp1147\ng5\nI11\nsba(i__main__\nNode\np1148\n(dp1149\ng5\nI11\nsba(i__main__\nNode\np1150\n(dp1151\ng5\nI11\nsba(i__main__\nNode\np1152\n(dp1153\ng5\nI11\nsba(i__main__\nNode\np1154\n(dp1155\ng5\nI11\nsba(i__main__\nNode\np1156\n(dp1157\ng5\nI11\nsba(i__main__\nNode\np1158\n(dp1159\ng5\nI12\nsba(i__main__\nNode\np1160\n(dp1161\ng5\nI11\nsba(i__main__\nNode\np1162\n(dp1163\ng5\nI12\nsba(i__main__\nNode\np1164\n(dp1165\ng5\nI11\nsba(i__main__\nNode\np1166\n(dp1167\ng5\nI12\nsbaa(lp1168\n(i__main__\nNode\np1169\n(dp1170\ng5\nI12\nsba(i__main__\nNode\np1171\n(dp1172\ng5\nI11\nsba(i__main__\nNode\np1173\n(dp1174\ng5\nI11\nsba(i__main__\nNode\np1175\n(dp1176\ng5\nI11\nsba(i__main__\nNode\np1177\n(dp1178\ng5\nI11\nsba(i__main__\nNode\np1179\n(dp1180\ng5\nI11\nsba(i__main__\nNode\np1181\n(dp1182\ng5\nI11\nsba(i__main__\nNode\np1183\n(dp1184\ng5\nI11\nsba(i__main__\nNode\np1185\n(dp1186\ng5\nI12\nsba(i__main__\nNode\np1187\n(dp1188\ng5\nI11\nsba(i__main__\nNode\np1189\n(dp1190\ng5\nI12\nsba(i__main__\nNode\np1191\n(dp1192\ng5\nI11\nsba(i__main__\nNode\np1193\n(dp1194\ng5\nI12\nsbaa(lp1195\n(i__main__\nNode\np1196\n(dp1197\ng5\nI12\nsba(i__main__\nNode\np1198\n(dp1199\ng5\nI11\nsba(i__main__\nNode\np1200\n(dp1201\ng5\nI11\nsba(i__main__\nNode\np1202\n(dp1203\ng5\nI11\nsba(i__main__\nNode\np1204\n(dp1205\ng5\nI11\nsba(i__main__\nNode\np1206\n(dp1207\ng5\nI11\nsba(i__main__\nNode\np1208\n(dp1209\ng5\nI11\nsba(i__main__\nNode\np1210\n(dp1211\ng5\nI11\nsba(i__main__\nNode\np1212\n(dp1213\ng5\nI12\nsba(i__main__\nNode\np1214\n(dp1215\ng5\nI11\nsba(i__main__\nNode\np1216\n(dp1217\ng5\nI12\nsba(i__main__\nNode\np1218\n(dp1219\ng5\nI11\nsba(i__main__\nNode\np1220\n(dp1221\ng5\nI12\nsbaa(lp1222\n(i__main__\nNode\np1223\n(dp1224\ng5\nI12\nsba(i__main__\nNode\np1225\n(dp1226\ng5\nI11\nsba(i__main__\nNode\np1227\n(dp1228\ng5\nI11\nsba(i__main__\nNode\np1229\n(dp1230\ng5\nI11\nsba(i__main__\nNode\np1231\n(dp1232\ng5\nI11\nsba(i__main__\nNode\np1233\n(dp1234\ng5\nI11\nsba(i__main__\nNode\np1235\n(dp1236\ng5\nI11\nsba(i__main__\nNode\np1237\n(dp1238\ng5\nI11\nsba(i__main__\nNode\np1239\n(dp1240\ng5\nI12\nsba(i__main__\nNode\np1241\n(dp1242\ng5\nI11\nsba(i__main__\nNode\np1243\n(dp1244\ng5\nI12\nsba(i__main__\nNode\np1245\n(dp1246\ng5\nI11\nsba(i__main__\nNode\np1247\n(dp1248\ng5\nI12\nsbaa(lp1249\n(i__main__\nNode\np1250\n(dp1251\ng5\nI12\nsba(i__main__\nNode\np1252\n(dp1253\ng5\nI11\nsba(i__main__\nNode\np1254\n(dp1255\ng5\nI11\nsba(i__main__\nNode\np1256\n(dp1257\ng5\nI11\nsba(i__main__\nNode\np1258\n(dp1259\ng5\nI11\nsba(i__main__\nNode\np1260\n(dp1261\ng5\nI11\nsba(i__main__\nNode\np1262\n(dp1263\ng5\nI11\nsba(i__main__\nNode\np1264\n(dp1265\ng5\nI11\nsba(i__main__\nNode\np1266\n(dp1267\ng5\nI12\nsba(i__main__\nNode\np1268\n(dp1269\ng5\nI11\nsba(i__main__\nNode\np1270\n(dp1271\ng5\nI12\nsba(i__main__\nNode\np1272\n(dp1273\ng5\nI11\nsba(i__main__\nNode\np1274\n(dp1275\ng5\nI12\nsbaa(lp1276\n(i__main__\nNode\np1277\n(dp1278\ng5\nI12\nsba(i__main__\nNode\np1279\n(dp1280\ng5\nI15\nsba(i__main__\nNode\np1281\n(dp1282\ng5\nI12\nsba(i__main__\nNode\np1283\n(dp1284\ng5\nI12\nsba(i__main__\nNode\np1285\n(dp1286\ng5\nI12\nsba(i__main__\nNode\np1287\n(dp1288\ng5\nI12\nsba(i__main__\nNode\np1289\n(dp1290\ng5\nI12\nsba(i__main__\nNode\np1291\n(dp1292\ng5\nI12\nsba(i__main__\nNode\np1293\n(dp1294\ng5\nI12\nsba(i__main__\nNode\np1295\n(dp1296\ng5\nI11\nsba(i__main__\nNode\np1297\n(dp1298\ng5\nI12\nsba(i__main__\nNode\np1299\n(dp1300\ng5\nI11\nsba(i__main__\nNode\np1301\n(dp1302\ng5\nI12\nsbaa(lp1303\n(i__main__\nNode\np1304\n(dp1305\ng5\nI12\nsba(i__main__\nNode\np1306\n(dp1307\ng5\nI11\nsba(i__main__\nNode\np1308\n(dp1309\ng5\nI11\nsba(i__main__\nNode\np1310\n(dp1311\ng5\nI11\nsba(i__main__\nNode\np1312\n(dp1313\ng5\nI11\nsba(i__main__\nNode\np1314\n(dp1315\ng5\nI11\nsba(i__main__\nNode\np1316\n(dp1317\ng5\nI11\nsba(i__main__\nNode\np1318\n(dp1319\ng5\nI11\nsba(i__main__\nNode\np1320\n(dp1321\ng5\nI11\nsba(i__main__\nNode\np1322\n(dp1323\ng5\nI11\nsba(i__main__\nNode\np1324\n(dp1325\ng5\nI15\nsba(i__main__\nNode\np1326\n(dp1327\ng5\nI11\nsba(i__main__\nNode\np1328\n(dp1329\ng5\nI12\nsbaa(lp1330\n(i__main__\nNode\np1331\n(dp1332\ng5\nI12\nsba(i__main__\nNode\np1333\n(dp1334\ng5\nI12\nsba(i__main__\nNode\np1335\n(dp1336\ng5\nI12\nsba(i__main__\nNode\np1337\n(dp1338\ng5\nI12\nsba(i__main__\nNode\np1339\n(dp1340\ng5\nI15\nsba(i__main__\nNode\np1341\n(dp1342\ng5\nI12\nsba(i__main__\nNode\np1343\n(dp1344\ng5\nI12\nsba(i__main__\nNode\np1345\n(dp1346\ng5\nI12\nsba(i__main__\nNode\np1347\n(dp1348\ng5\nI12\nsba(i__main__\nNode\np1349\n(dp1350\ng5\nI12\nsba(i__main__\nNode\np1351\n(dp1352\ng5\nI12\nsba(i__main__\nNode\np1353\n(dp1354\ng5\nI12\nsba(i__main__\nNode\np1355\n(dp1356\ng5\nI12\nsbaa(lp1357\n(i__main__\nNode\np1358\n(dp1359\ng5\nI12\nsba(i__main__\nNode\np1360\n(dp1361\ng5\nI11\nsba(i__main__\nNode\np1362\n(dp1363\ng5\nI11\nsba(i__main__\nNode\np1364\n(dp1365\ng5\nI11\nsba(i__main__\nNode\np1366\n(dp1367\ng5\nI11\nsba(i__main__\nNode\np1368\n(dp1369\ng5\nI11\nsba(i__main__\nNode\np1370\n(dp1371\ng5\nI11\nsba(i__main__\nNode\np1372\n(dp1373\ng5\nI11\nsba(i__main__\nNode\np1374\n(dp1375\ng5\nI11\nsba(i__main__\nNode\np1376\n(dp1377\ng5\nI11\nsba(i__main__\nNode\np1378\n(dp1379\ng5\nI11\nsba(i__main__\nNode\np1380\n(dp1381\ng5\nI14\nsg497\nI2\nsba(i__main__\nNode\np1382\n(dp1383\ng5\nI12\nsbaa(lp1384\n(i__main__\nNode\np1385\n(dp1386\ng5\nI12\nsba(i__main__\nNode\np1387\n(dp1388\ng5\nI12\nsba(i__main__\nNode\np1389\n(dp1390\ng5\nI12\nsba(i__main__\nNode\np1391\n(dp1392\ng5\nI12\nsba(i__main__\nNode\np1393\n(dp1394\ng5\nI12\nsba(i__main__\nNode\np1395\n(dp1396\ng5\nI12\nsba(i__main__\nNode\np1397\n(dp1398\ng5\nI12\nsba(i__main__\nNode\np1399\n(dp1400\ng5\nI12\nsba(i__main__\nNode\np1401\n(dp1402\ng5\nI12\nsba(i__main__\nNode\np1403\n(dp1404\ng5\nI12\nsba(i__main__\nNode\np1405\n(dp1406\ng5\nI12\nsba(i__main__\nNode\np1407\n(dp1408\ng5\nI12\nsba(i__main__\nNode\np1409\n(dp1410\ng5\nI12\nsbaasI4\n(lp1411\n(lp1412\n(i__main__\nNode\np1413\n(dp1414\ng5\nI12\nsba(i__main__\nNode\np1415\n(dp1416\ng5\nI12\nsba(i__main__\nNode\np1417\n(dp1418\ng5\nI12\nsba(i__main__\nNode\np1419\n(dp1420\ng5\nI12\nsba(i__main__\nNode\np1421\n(dp1422\ng5\nI12\nsba(i__main__\nNode\np1423\n(dp1424\ng5\nI12\nsba(i__main__\nNode\np1425\n(dp1426\ng5\nI12\nsba(i__main__\nNode\np1427\n(dp1428\ng5\nI12\nsba(i__main__\nNode\np1429\n(dp1430\ng5\nI12\nsba(i__main__\nNode\np1431\n(dp1432\ng5\nI12\nsba(i__main__\nNode\np1433\n(dp1434\ng5\nI12\nsba(i__main__\nNode\np1435\n(dp1436\ng5\nI12\nsba(i__main__\nNode\np1437\n(dp1438\ng5\nI12\nsbaa(lp1439\n(i__main__\nNode\np1440\n(dp1441\ng5\nI12\nsba(i__main__\nNode\np1442\n(dp1443\ng5\nI11\nsba(i__main__\nNode\np1444\n(dp1445\ng5\nI11\nsba(i__main__\nNode\np1446\n(dp1447\ng5\nI11\nsba(i__main__\nNode\np1448\n(dp1449\ng5\nI12\nsba(i__main__\nNode\np1450\n(dp1451\ng5\nI11\nsba(i__main__\nNode\np1452\n(dp1453\ng5\nI11\nsba(i__main__\nNode\np1454\n(dp1455\ng5\nI12\nsba(i__main__\nNode\np1456\n(dp1457\ng5\nI11\nsba(i__main__\nNode\np1458\n(dp1459\ng5\nI12\nsba(i__main__\nNode\np1460\n(dp1461\ng5\nI11\nsba(i__main__\nNode\np1462\n(dp1463\ng5\nI14\nsg497\nI2\nsba(i__main__\nNode\np1464\n(dp1465\ng5\nI12\nsbaa(lp1466\n(i__main__\nNode\np1467\n(dp1468\ng5\nI12\nsba(i__main__\nNode\np1469\n(dp1470\ng5\nI11\nsba(i__main__\nNode\np1471\n(dp1472\ng5\nI11\nsba(i__main__\nNode\np1473\n(dp1474\ng5\nI11\nsba(i__main__\nNode\np1475\n(dp1476\ng5\nI12\nsba(i__main__\nNode\np1477\n(dp1478\ng5\nI11\nsba(i__main__\nNode\np1479\n(dp1480\ng5\nI11\nsba(i__main__\nNode\np1481\n(dp1482\ng5\nI12\nsba(i__main__\nNode\np1483\n(dp1484\ng5\nI11\nsba(i__main__\nNode\np1485\n(dp1486\ng5\nI15\nsba(i__main__\nNode\np1487\n(dp1488\ng5\nI11\nsba(i__main__\nNode\np1489\n(dp1490\ng5\nI11\nsba(i__main__\nNode\np1491\n(dp1492\ng5\nI12\nsbaa(lp1493\n(i__main__\nNode\np1494\n(dp1495\ng5\nI12\nsba(i__main__\nNode\np1496\n(dp1497\ng5\nI15\nsba(i__main__\nNode\np1498\n(dp1499\ng5\nI12\nsba(i__main__\nNode\np1500\n(dp1501\ng5\nI12\nsba(i__main__\nNode\np1502\n(dp1503\ng5\nI12\nsba(i__main__\nNode\np1504\n(dp1505\ng5\nI15\nsba(i__main__\nNode\np1506\n(dp1507\ng5\nI12\nsba(i__main__\nNode\np1508\n(dp1509\ng5\nI12\nsba(i__main__\nNode\np1510\n(dp1511\ng5\nI12\nsba(i__main__\nNode\np1512\n(dp1513\ng5\nI12\nsba(i__main__\nNode\np1514\n(dp1515\ng5\nI12\nsba(i__main__\nNode\np1516\n(dp1517\ng5\nI15\nsba(i__main__\nNode\np1518\n(dp1519\ng5\nI12\nsbaa(lp1520\n(i__main__\nNode\np1521\n(dp1522\ng5\nI12\nsba(i__main__\nNode\np1523\n(dp1524\ng5\nI11\nsba(i__main__\nNode\np1525\n(dp1526\ng5\nI11\nsba(i__main__\nNode\np1527\n(dp1528\ng5\nI11\nsba(i__main__\nNode\np1529\n(dp1530\ng5\nI11\nsba(i__main__\nNode\np1531\n(dp1532\ng5\nI11\nsba(i__main__\nNode\np1533\n(dp1534\ng5\nI11\nsba(i__main__\nNode\np1535\n(dp1536\ng5\nI11\nsba(i__main__\nNode\np1537\n(dp1538\ng5\nI11\nsba(i__main__\nNode\np1539\n(dp1540\ng5\nI11\nsba(i__main__\nNode\np1541\n(dp1542\ng5\nI11\nsba(i__main__\nNode\np1543\n(dp1544\ng5\nI11\nsba(i__main__\nNode\np1545\n(dp1546\ng5\nI12\nsbaa(lp1547\n(i__main__\nNode\np1548\n(dp1549\ng5\nI12\nsba(i__main__\nNode\np1550\n(dp1551\ng5\nI12\nsba(i__main__\nNode\np1552\n(dp1553\ng5\nI15\nsba(i__main__\nNode\np1554\n(dp1555\ng5\nI12\nsba(i__main__\nNode\np1556\n(dp1557\ng5\nI12\nsba(i__main__\nNode\np1558\n(dp1559\ng5\nI12\nsba(i__main__\nNode\np1560\n(dp1561\ng5\nI12\nsba(i__main__\nNode\np1562\n(dp1563\ng5\nI12\nsba(i__main__\nNode\np1564\n(dp1565\ng5\nI12\nsba(i__main__\nNode\np1566\n(dp1567\ng5\nI12\nsba(i__main__\nNode\np1568\n(dp1569\ng5\nI12\nsba(i__main__\nNode\np1570\n(dp1571\ng5\nI12\nsba(i__main__\nNode\np1572\n(dp1573\ng5\nI12\nsbaa(lp1574\n(i__main__\nNode\np1575\n(dp1576\ng5\nI12\nsba(i__main__\nNode\np1577\n(dp1578\ng5\nI11\nsba(i__main__\nNode\np1579\n(dp1580\ng5\nI11\nsba(i__main__\nNode\np1581\n(dp1582\ng5\nI11\nsba(i__main__\nNode\np1583\n(dp1584\ng5\nI15\nsba(i__main__\nNode\np1585\n(dp1586\ng5\nI11\nsba(i__main__\nNode\np1587\n(dp1588\ng5\nI11\nsba(i__main__\nNode\np1589\n(dp1590\ng5\nI11\nsba(i__main__\nNode\np1591\n(dp1592\ng5\nI11\nsba(i__main__\nNode\np1593\n(dp1594\ng5\nI11\nsba(i__main__\nNode\np1595\n(dp1596\ng5\nI11\nsba(i__main__\nNode\np1597\n(dp1598\ng5\nI14\nsg497\nI1\nsba(i__main__\nNode\np1599\n(dp1600\ng5\nI12\nsbaa(lp1601\n(i__main__\nNode\np1602\n(dp1603\ng5\nI12\nsba(i__main__\nNode\np1604\n(dp1605\ng5\nI11\nsba(i__main__\nNode\np1606\n(dp1607\ng5\nI11\nsba(i__main__\nNode\np1608\n(dp1609\ng5\nI11\nsba(i__main__\nNode\np1610\n(dp1611\ng5\nI12\nsba(i__main__\nNode\np1612\n(dp1613\ng5\nI12\nsba(i__main__\nNode\np1614\n(dp1615\ng5\nI12\nsba(i__main__\nNode\np1616\n(dp1617\ng5\nI12\nsba(i__main__\nNode\np1618\n(dp1619\ng5\nI12\nsba(i__main__\nNode\np1620\n(dp1621\ng5\nI12\nsba(i__main__\nNode\np1622\n(dp1623\ng5\nI12\nsba(i__main__\nNode\np1624\n(dp1625\ng5\nI12\nsba(i__main__\nNode\np1626\n(dp1627\ng5\nI12\nsbaa(lp1628\n(i__main__\nNode\np1629\n(dp1630\ng5\nI12\nsba(i__main__\nNode\np1631\n(dp1632\ng5\nI12\nsba(i__main__\nNode\np1633\n(dp1634\ng5\nI12\nsba(i__main__\nNode\np1635\n(dp1636\ng5\nI15\nsba(i__main__\nNode\np1637\n(dp1638\ng5\nI12\nsba(i__main__\nNode\np1639\n(dp1640\ng5\nI11\nsba(i__main__\nNode\np1641\n(dp1642\ng5\nI11\nsba(i__main__\nNode\np1643\n(dp1644\ng5\nI11\nsba(i__main__\nNode\np1645\n(dp1646\ng5\nI11\nsba(i__main__\nNode\np1647\n(dp1648\ng5\nI11\nsba(i__main__\nNode\np1649\n(dp1650\ng5\nI11\nsba(i__main__\nNode\np1651\n(dp1652\ng5\nI11\nsba(i__main__\nNode\np1653\n(dp1654\ng5\nI12\nsbaa(lp1655\n(i__main__\nNode\np1656\n(dp1657\ng5\nI12\nsba(i__main__\nNode\np1658\n(dp1659\ng5\nI11\nsba(i__main__\nNode\np1660\n(dp1661\ng5\nI11\nsba(i__main__\nNode\np1662\n(dp1663\ng5\nI11\nsba(i__main__\nNode\np1664\n(dp1665\ng5\nI12\nsba(i__main__\nNode\np1666\n(dp1667\ng5\nI12\nsba(i__main__\nNode\np1668\n(dp1669\ng5\nI12\nsba(i__main__\nNode\np1670\n(dp1671\ng5\nI12\nsba(i__main__\nNode\np1672\n(dp1673\ng5\nI12\nsba(i__main__\nNode\np1674\n(dp1675\ng5\nI12\nsba(i__main__\nNode\np1676\n(dp1677\ng5\nI12\nsba(i__main__\nNode\np1678\n(dp1679\ng5\nI15\nsba(i__main__\nNode\np1680\n(dp1681\ng5\nI12\nsbaa(lp1682\n(i__main__\nNode\np1683\n(dp1684\ng5\nI12\nsba(i__main__\nNode\np1685\n(dp1686\ng5\nI12\nsba(i__main__\nNode\np1687\n(dp1688\ng5\nI15\nsba(i__main__\nNode\np1689\n(dp1690\ng5\nI12\nsba(i__main__\nNode\np1691\n(dp1692\ng5\nI12\nsba(i__main__\nNode\np1693\n(dp1694\ng5\nI11\nsba(i__main__\nNode\np1695\n(dp1696\ng5\nI15\nsba(i__main__\nNode\np1697\n(dp1698\ng5\nI11\nsba(i__main__\nNode\np1699\n(dp1700\ng5\nI11\nsba(i__main__\nNode\np1701\n(dp1702\ng5\nI11\nsba(i__main__\nNode\np1703\n(dp1704\ng5\nI15\nsba(i__main__\nNode\np1705\n(dp1706\ng5\nI11\nsba(i__main__\nNode\np1707\n(dp1708\ng5\nI12\nsbaa(lp1709\n(i__main__\nNode\np1710\n(dp1711\ng5\nI12\nsba(i__main__\nNode\np1712\n(dp1713\ng5\nI11\nsba(i__main__\nNode\np1714\n(dp1715\ng5\nI11\nsba(i__main__\nNode\np1716\n(dp1717\ng5\nI11\nsba(i__main__\nNode\np1718\n(dp1719\ng5\nI15\nsba(i__main__\nNode\np1720\n(dp1721\ng5\nI11\nsba(i__main__\nNode\np1722\n(dp1723\ng5\nI12\nsba(i__main__\nNode\np1724\n(dp1725\ng5\nI11\nsba(i__main__\nNode\np1726\n(dp1727\ng5\nI11\nsba(i__main__\nNode\np1728\n(dp1729\ng5\nI11\nsba(i__main__\nNode\np1730\n(dp1731\ng5\nI12\nsba(i__main__\nNode\np1732\n(dp1733\ng5\nI11\nsba(i__main__\nNode\np1734\n(dp1735\ng5\nI12\nsbaa(lp1736\n(i__main__\nNode\np1737\n(dp1738\ng5\nI12\nsba(i__main__\nNode\np1739\n(dp1740\ng5\nI12\nsba(i__main__\nNode\np1741\n(dp1742\ng5\nI12\nsba(i__main__\nNode\np1743\n(dp1744\ng5\nI12\nsba(i__main__\nNode\np1745\n(dp1746\ng5\nI12\nsba(i__main__\nNode\np1747\n(dp1748\ng5\nI12\nsba(i__main__\nNode\np1749\n(dp1750\ng5\nI12\nsba(i__main__\nNode\np1751\n(dp1752\ng5\nI12\nsba(i__main__\nNode\np1753\n(dp1754\ng5\nI12\nsba(i__main__\nNode\np1755\n(dp1756\ng5\nI12\nsba(i__main__\nNode\np1757\n(dp1758\ng5\nI12\nsba(i__main__\nNode\np1759\n(dp1760\ng5\nI12\nsba(i__main__\nNode\np1761\n(dp1762\ng5\nI12\nsbaasI5\n(lp1763\n(lp1764\n(i__main__\nNode\np1765\n(dp1766\ng5\nI12\nsba(i__main__\nNode\np1767\n(dp1768\ng5\nI12\nsba(i__main__\nNode\np1769\n(dp1770\ng5\nI12\nsba(i__main__\nNode\np1771\n(dp1772\ng5\nI12\nsba(i__main__\nNode\np1773\n(dp1774\ng5\nI12\nsba(i__main__\nNode\np1775\n(dp1776\ng5\nI12\nsba(i__main__\nNode\np1777\n(dp1778\ng5\nI12\nsba(i__main__\nNode\np1779\n(dp1780\ng5\nI12\nsba(i__main__\nNode\np1781\n(dp1782\ng5\nI12\nsba(i__main__\nNode\np1783\n(dp1784\ng5\nI12\nsba(i__main__\nNode\np1785\n(dp1786\ng5\nI12\nsba(i__main__\nNode\np1787\n(dp1788\ng5\nI12\nsba(i__main__\nNode\np1789\n(dp1790\ng5\nI12\nsbaa(lp1791\n(i__main__\nNode\np1792\n(dp1793\ng5\nI12\nsba(i__main__\nNode\np1794\n(dp1795\ng5\nI11\nsba(i__main__\nNode\np1796\n(dp1797\ng5\nI12\nsba(i__main__\nNode\np1798\n(dp1799\ng5\nI11\nsba(i__main__\nNode\np1800\n(dp1801\ng5\nI11\nsba(i__main__\nNode\np1802\n(dp1803\ng5\nI12\nsba(i__main__\nNode\np1804\n(dp1805\ng5\nI11\nsba(i__main__\nNode\np1806\n(dp1807\ng5\nI11\nsba(i__main__\nNode\np1808\n(dp1809\ng5\nI11\nsba(i__main__\nNode\np1810\n(dp1811\ng5\nI15\nsba(i__main__\nNode\np1812\n(dp1813\ng5\nI11\nsba(i__main__\nNode\np1814\n(dp1815\ng5\nI11\nsba(i__main__\nNode\np1816\n(dp1817\ng5\nI12\nsbaa(lp1818\n(i__main__\nNode\np1819\n(dp1820\ng5\nI12\nsba(i__main__\nNode\np1821\n(dp1822\ng5\nI11\nsba(i__main__\nNode\np1823\n(dp1824\ng5\nI15\nsba(i__main__\nNode\np1825\n(dp1826\ng5\nI11\nsba(i__main__\nNode\np1827\n(dp1828\ng5\nI11\nsba(i__main__\nNode\np1829\n(dp1830\ng5\nI12\nsba(i__main__\nNode\np1831\n(dp1832\ng5\nI12\nsba(i__main__\nNode\np1833\n(dp1834\ng5\nI12\nsba(i__main__\nNode\np1835\n(dp1836\ng5\nI12\nsba(i__main__\nNode\np1837\n(dp1838\ng5\nI12\nsba(i__main__\nNode\np1839\n(dp1840\ng5\nI15\nsba(i__main__\nNode\np1841\n(dp1842\ng5\nI12\nsba(i__main__\nNode\np1843\n(dp1844\ng5\nI12\nsbaa(lp1845\n(i__main__\nNode\np1846\n(dp1847\ng5\nI12\nsba(i__main__\nNode\np1848\n(dp1849\ng5\nI11\nsba(i__main__\nNode\np1850\n(dp1851\ng5\nI12\nsba(i__main__\nNode\np1852\n(dp1853\ng5\nI11\nsba(i__main__\nNode\np1854\n(dp1855\ng5\nI11\nsba(i__main__\nNode\np1856\n(dp1857\ng5\nI12\nsba(i__main__\nNode\np1858\n(dp1859\ng5\nI11\nsba(i__main__\nNode\np1860\n(dp1861\ng5\nI11\nsba(i__main__\nNode\np1862\n(dp1863\ng5\nI11\nsba(i__main__\nNode\np1864\n(dp1865\ng5\nI15\nsba(i__main__\nNode\np1866\n(dp1867\ng5\nI11\nsba(i__main__\nNode\np1868\n(dp1869\ng5\nI11\nsba(i__main__\nNode\np1870\n(dp1871\ng5\nI12\nsbaa(lp1872\n(i__main__\nNode\np1873\n(dp1874\ng5\nI12\nsba(i__main__\nNode\np1875\n(dp1876\ng5\nI12\nsba(i__main__\nNode\np1877\n(dp1878\ng5\nI12\nsba(i__main__\nNode\np1879\n(dp1880\ng5\nI12\nsba(i__main__\nNode\np1881\n(dp1882\ng5\nI15\nsba(i__main__\nNode\np1883\n(dp1884\ng5\nI12\nsba(i__main__\nNode\np1885\n(dp1886\ng5\nI12\nsba(i__main__\nNode\np1887\n(dp1888\ng5\nI12\nsba(i__main__\nNode\np1889\n(dp1890\ng5\nI15\nsba(i__main__\nNode\np1891\n(dp1892\ng5\nI12\nsba(i__main__\nNode\np1893\n(dp1894\ng5\nI11\nsba(i__main__\nNode\np1895\n(dp1896\ng5\nI11\nsba(i__main__\nNode\np1897\n(dp1898\ng5\nI12\nsbaa(lp1899\n(i__main__\nNode\np1900\n(dp1901\ng5\nI12\nsba(i__main__\nNode\np1902\n(dp1903\ng5\nI11\nsba(i__main__\nNode\np1904\n(dp1905\ng5\nI11\nsba(i__main__\nNode\np1906\n(dp1907\ng5\nI15\nsba(i__main__\nNode\np1908\n(dp1909\ng5\nI11\nsba(i__main__\nNode\np1910\n(dp1911\ng5\nI12\nsba(i__main__\nNode\np1912\n(dp1913\ng5\nI11\nsba(i__main__\nNode\np1914\n(dp1915\ng5\nI11\nsba(i__main__\nNode\np1916\n(dp1917\ng5\nI11\nsba(i__main__\nNode\np1918\n(dp1919\ng5\nI12\nsba(i__main__\nNode\np1920\n(dp1921\ng5\nI15\nsba(i__main__\nNode\np1922\n(dp1923\ng5\nI12\nsba(i__main__\nNode\np1924\n(dp1925\ng5\nI12\nsbaa(lp1926\n(i__main__\nNode\np1927\n(dp1928\ng5\nI12\nsba(i__main__\nNode\np1929\n(dp1930\ng5\nI12\nsba(i__main__\nNode\np1931\n(dp1932\ng5\nI12\nsba(i__main__\nNode\np1933\n(dp1934\ng5\nI12\nsba(i__main__\nNode\np1935\n(dp1936\ng5\nI11\nsba(i__main__\nNode\np1937\n(dp1938\ng5\nI12\nsba(i__main__\nNode\np1939\n(dp1940\ng5\nI12\nsba(i__main__\nNode\np1941\n(dp1942\ng5\nI12\nsba(i__main__\nNode\np1943\n(dp1944\ng5\nI12\nsba(i__main__\nNode\np1945\n(dp1946\ng5\nI12\nsba(i__main__\nNode\np1947\n(dp1948\ng5\nI11\nsba(i__main__\nNode\np1949\n(dp1950\ng5\nI14\nsg497\nI2\nsba(i__main__\nNode\np1951\n(dp1952\ng5\nI12\nsbaa(lp1953\n(i__main__\nNode\np1954\n(dp1955\ng5\nI12\nsba(i__main__\nNode\np1956\n(dp1957\ng5\nI11\nsba(i__main__\nNode\np1958\n(dp1959\ng5\nI11\nsba(i__main__\nNode\np1960\n(dp1961\ng5\nI12\nsba(i__main__\nNode\np1962\n(dp1963\ng5\nI11\nsba(i__main__\nNode\np1964\n(dp1965\ng5\nI12\nsba(i__main__\nNode\np1966\n(dp1967\ng5\nI11\nsba(i__main__\nNode\np1968\n(dp1969\ng5\nI11\nsba(i__main__\nNode\np1970\n(dp1971\ng5\nI11\nsba(i__main__\nNode\np1972\n(dp1973\ng5\nI12\nsba(i__main__\nNode\np1974\n(dp1975\ng5\nI11\nsba(i__main__\nNode\np1976\n(dp1977\ng5\nI11\nsba(i__main__\nNode\np1978\n(dp1979\ng5\nI12\nsbaa(lp1980\n(i__main__\nNode\np1981\n(dp1982\ng5\nI12\nsba(i__main__\nNode\np1983\n(dp1984\ng5\nI11\nsba(i__main__\nNode\np1985\n(dp1986\ng5\nI11\nsba(i__main__\nNode\np1987\n(dp1988\ng5\nI15\nsba(i__main__\nNode\np1989\n(dp1990\ng5\nI11\nsba(i__main__\nNode\np1991\n(dp1992\ng5\nI15\nsba(i__main__\nNode\np1993\n(dp1994\ng5\nI11\nsba(i__main__\nNode\np1995\n(dp1996\ng5\nI11\nsba(i__main__\nNode\np1997\n(dp1998\ng5\nI11\nsba(i__main__\nNode\np1999\n(dp2000\ng5\nI15\nsba(i__main__\nNode\np2001\n(dp2002\ng5\nI11\nsba(i__main__\nNode\np2003\n(dp2004\ng5\nI11\nsba(i__main__\nNode\np2005\n(dp2006\ng5\nI12\nsbaa(lp2007\n(i__main__\nNode\np2008\n(dp2009\ng5\nI12\nsba(i__main__\nNode\np2010\n(dp2011\ng5\nI12\nsba(i__main__\nNode\np2012\n(dp2013\ng5\nI12\nsba(i__main__\nNode\np2014\n(dp2015\ng5\nI12\nsba(i__main__\nNode\np2016\n(dp2017\ng5\nI12\nsba(i__main__\nNode\np2018\n(dp2019\ng5\nI12\nsba(i__main__\nNode\np2020\n(dp2021\ng5\nI15\nsba(i__main__\nNode\np2022\n(dp2023\ng5\nI12\nsba(i__main__\nNode\np2024\n(dp2025\ng5\nI12\nsba(i__main__\nNode\np2026\n(dp2027\ng5\nI12\nsba(i__main__\nNode\np2028\n(dp2029\ng5\nI12\nsba(i__main__\nNode\np2030\n(dp2031\ng5\nI15\nsba(i__main__\nNode\np2032\n(dp2033\ng5\nI12\nsbaa(lp2034\n(i__main__\nNode\np2035\n(dp2036\ng5\nI12\nsba(i__main__\nNode\np2037\n(dp2038\ng5\nI11\nsba(i__main__\nNode\np2039\n(dp2040\ng5\nI12\nsba(i__main__\nNode\np2041\n(dp2042\ng5\nI11\nsba(i__main__\nNode\np2043\n(dp2044\ng5\nI11\nsba(i__main__\nNode\np2045\n(dp2046\ng5\nI12\nsba(i__main__\nNode\np2047\n(dp2048\ng5\nI11\nsba(i__main__\nNode\np2049\n(dp2050\ng5\nI11\nsba(i__main__\nNode\np2051\n(dp2052\ng5\nI11\nsba(i__main__\nNode\np2053\n(dp2054\ng5\nI12\nsba(i__main__\nNode\np2055\n(dp2056\ng5\nI11\nsba(i__main__\nNode\np2057\n(dp2058\ng5\nI11\nsba(i__main__\nNode\np2059\n(dp2060\ng5\nI12\nsbaa(lp2061\n(i__main__\nNode\np2062\n(dp2063\ng5\nI12\nsba(i__main__\nNode\np2064\n(dp2065\ng5\nI11\nsba(i__main__\nNode\np2066\n(dp2067\ng5\nI15\nsba(i__main__\nNode\np2068\n(dp2069\ng5\nI11\nsba(i__main__\nNode\np2070\n(dp2071\ng5\nI11\nsba(i__main__\nNode\np2072\n(dp2073\ng5\nI15\nsba(i__main__\nNode\np2074\n(dp2075\ng5\nI11\nsba(i__main__\nNode\np2076\n(dp2077\ng5\nI11\nsba(i__main__\nNode\np2078\n(dp2079\ng5\nI11\nsba(i__main__\nNode\np2080\n(dp2081\ng5\nI12\nsba(i__main__\nNode\np2082\n(dp2083\ng5\nI11\nsba(i__main__\nNode\np2084\n(dp2085\ng5\nI14\nsg497\nI1\nsba(i__main__\nNode\np2086\n(dp2087\ng5\nI12\nsbaa(lp2088\n(i__main__\nNode\np2089\n(dp2090\ng5\nI12\nsba(i__main__\nNode\np2091\n(dp2092\ng5\nI12\nsba(i__main__\nNode\np2093\n(dp2094\ng5\nI12\nsba(i__main__\nNode\np2095\n(dp2096\ng5\nI12\nsba(i__main__\nNode\np2097\n(dp2098\ng5\nI12\nsba(i__main__\nNode\np2099\n(dp2100\ng5\nI12\nsba(i__main__\nNode\np2101\n(dp2102\ng5\nI12\nsba(i__main__\nNode\np2103\n(dp2104\ng5\nI12\nsba(i__main__\nNode\np2105\n(dp2106\ng5\nI12\nsba(i__main__\nNode\np2107\n(dp2108\ng5\nI12\nsba(i__main__\nNode\np2109\n(dp2110\ng5\nI12\nsba(i__main__\nNode\np2111\n(dp2112\ng5\nI12\nsba(i__main__\nNode\np2113\n(dp2114\ng5\nI12\nsbaasI6\n(lp2115\n(lp2116\n(i__main__\nNode\np2117\n(dp2118\ng5\nI12\nsba(i__main__\nNode\np2119\n(dp2120\ng5\nI12\nsba(i__main__\nNode\np2121\n(dp2122\ng5\nI12\nsba(i__main__\nNode\np2123\n(dp2124\ng5\nI12\nsba(i__main__\nNode\np2125\n(dp2126\ng5\nI12\nsba(i__main__\nNode\np2127\n(dp2128\ng5\nI12\nsba(i__main__\nNode\np2129\n(dp2130\ng5\nI12\nsba(i__main__\nNode\np2131\n(dp2132\ng5\nI12\nsba(i__main__\nNode\np2133\n(dp2134\ng5\nI12\nsba(i__main__\nNode\np2135\n(dp2136\ng5\nI12\nsba(i__main__\nNode\np2137\n(dp2138\ng5\nI12\nsba(i__main__\nNode\np2139\n(dp2140\ng5\nI12\nsba(i__main__\nNode\np2141\n(dp2142\ng5\nI12\nsbaa(lp2143\n(i__main__\nNode\np2144\n(dp2145\ng5\nI12\nsba(i__main__\nNode\np2146\n(dp2147\ng5\nI11\nsba(i__main__\nNode\np2148\n(dp2149\ng5\nI11\nsba(i__main__\nNode\np2150\n(dp2151\ng5\nI11\nsba(i__main__\nNode\np2152\n(dp2153\ng5\nI11\nsba(i__main__\nNode\np2154\n(dp2155\ng5\nI11\nsba(i__main__\nNode\np2156\n(dp2157\ng5\nI11\nsba(i__main__\nNode\np2158\n(dp2159\ng5\nI11\nsba(i__main__\nNode\np2160\n(dp2161\ng5\nI12\nsba(i__main__\nNode\np2162\n(dp2163\ng5\nI11\nsba(i__main__\nNode\np2164\n(dp2165\ng5\nI12\nsba(i__main__\nNode\np2166\n(dp2167\ng5\nI11\nsba(i__main__\nNode\np2168\n(dp2169\ng5\nI12\nsbaa(lp2170\n(i__main__\nNode\np2171\n(dp2172\ng5\nI12\nsba(i__main__\nNode\np2173\n(dp2174\ng5\nI11\nsba(i__main__\nNode\np2175\n(dp2176\ng5\nI11\nsba(i__main__\nNode\np2177\n(dp2178\ng5\nI11\nsba(i__main__\nNode\np2179\n(dp2180\ng5\nI11\nsba(i__main__\nNode\np2181\n(dp2182\ng5\nI11\nsba(i__main__\nNode\np2183\n(dp2184\ng5\nI11\nsba(i__main__\nNode\np2185\n(dp2186\ng5\nI11\nsba(i__main__\nNode\np2187\n(dp2188\ng5\nI12\nsba(i__main__\nNode\np2189\n(dp2190\ng5\nI11\nsba(i__main__\nNode\np2191\n(dp2192\ng5\nI12\nsba(i__main__\nNode\np2193\n(dp2194\ng5\nI11\nsba(i__main__\nNode\np2195\n(dp2196\ng5\nI12\nsbaa(lp2197\n(i__main__\nNode\np2198\n(dp2199\ng5\nI12\nsba(i__main__\nNode\np2200\n(dp2201\ng5\nI11\nsba(i__main__\nNode\np2202\n(dp2203\ng5\nI11\nsba(i__main__\nNode\np2204\n(dp2205\ng5\nI11\nsba(i__main__\nNode\np2206\n(dp2207\ng5\nI11\nsba(i__main__\nNode\np2208\n(dp2209\ng5\nI11\nsba(i__main__\nNode\np2210\n(dp2211\ng5\nI11\nsba(i__main__\nNode\np2212\n(dp2213\ng5\nI11\nsba(i__main__\nNode\np2214\n(dp2215\ng5\nI15\nsba(i__main__\nNode\np2216\n(dp2217\ng5\nI11\nsba(i__main__\nNode\np2218\n(dp2219\ng5\nI15\nsba(i__main__\nNode\np2220\n(dp2221\ng5\nI11\nsba(i__main__\nNode\np2222\n(dp2223\ng5\nI12\nsbaa(lp2224\n(i__main__\nNode\np2225\n(dp2226\ng5\nI12\nsba(i__main__\nNode\np2227\n(dp2228\ng5\nI11\nsba(i__main__\nNode\np2229\n(dp2230\ng5\nI11\nsba(i__main__\nNode\np2231\n(dp2232\ng5\nI11\nsba(i__main__\nNode\np2233\n(dp2234\ng5\nI11\nsba(i__main__\nNode\np2235\n(dp2236\ng5\nI11\nsba(i__main__\nNode\np2237\n(dp2238\ng5\nI11\nsba(i__main__\nNode\np2239\n(dp2240\ng5\nI11\nsba(i__main__\nNode\np2241\n(dp2242\ng5\nI12\nsba(i__main__\nNode\np2243\n(dp2244\ng5\nI11\nsba(i__main__\nNode\np2245\n(dp2246\ng5\nI12\nsba(i__main__\nNode\np2247\n(dp2248\ng5\nI11\nsba(i__main__\nNode\np2249\n(dp2250\ng5\nI12\nsbaa(lp2251\n(i__main__\nNode\np2252\n(dp2253\ng5\nI12\nsba(i__main__\nNode\np2254\n(dp2255\ng5\nI11\nsba(i__main__\nNode\np2256\n(dp2257\ng5\nI11\nsba(i__main__\nNode\np2258\n(dp2259\ng5\nI11\nsba(i__main__\nNode\np2260\n(dp2261\ng5\nI11\nsba(i__main__\nNode\np2262\n(dp2263\ng5\nI11\nsba(i__main__\nNode\np2264\n(dp2265\ng5\nI11\nsba(i__main__\nNode\np2266\n(dp2267\ng5\nI11\nsba(i__main__\nNode\np2268\n(dp2269\ng5\nI12\nsba(i__main__\nNode\np2270\n(dp2271\ng5\nI11\nsba(i__main__\nNode\np2272\n(dp2273\ng5\nI12\nsba(i__main__\nNode\np2274\n(dp2275\ng5\nI11\nsba(i__main__\nNode\np2276\n(dp2277\ng5\nI12\nsbaa(lp2278\n(i__main__\nNode\np2279\n(dp2280\ng5\nI12\nsba(i__main__\nNode\np2281\n(dp2282\ng5\nI11\nsba(i__main__\nNode\np2283\n(dp2284\ng5\nI11\nsba(i__main__\nNode\np2285\n(dp2286\ng5\nI11\nsba(i__main__\nNode\np2287\n(dp2288\ng5\nI11\nsba(i__main__\nNode\np2289\n(dp2290\ng5\nI11\nsba(i__main__\nNode\np2291\n(dp2292\ng5\nI11\nsba(i__main__\nNode\np2293\n(dp2294\ng5\nI11\nsba(i__main__\nNode\np2295\n(dp2296\ng5\nI12\nsba(i__main__\nNode\np2297\n(dp2298\ng5\nI15\nsba(i__main__\nNode\np2299\n(dp2300\ng5\nI12\nsba(i__main__\nNode\np2301\n(dp2302\ng5\nI12\nsba(i__main__\nNode\np2303\n(dp2304\ng5\nI12\nsbaa(lp2305\n(i__main__\nNode\np2306\n(dp2307\ng5\nI12\nsba(i__main__\nNode\np2308\n(dp2309\ng5\nI11\nsba(i__main__\nNode\np2310\n(dp2311\ng5\nI11\nsba(i__main__\nNode\np2312\n(dp2313\ng5\nI11\nsba(i__main__\nNode\np2314\n(dp2315\ng5\nI11\nsba(i__main__\nNode\np2316\n(dp2317\ng5\nI11\nsba(i__main__\nNode\np2318\n(dp2319\ng5\nI11\nsba(i__main__\nNode\np2320\n(dp2321\ng5\nI11\nsba(i__main__\nNode\np2322\n(dp2323\ng5\nI12\nsba(i__main__\nNode\np2324\n(dp2325\ng5\nI11\nsba(i__main__\nNode\np2326\n(dp2327\ng5\nI15\nsba(i__main__\nNode\np2328\n(dp2329\ng5\nI11\nsba(i__main__\nNode\np2330\n(dp2331\ng5\nI12\nsbaa(lp2332\n(i__main__\nNode\np2333\n(dp2334\ng5\nI12\nsba(i__main__\nNode\np2335\n(dp2336\ng5\nI12\nsba(i__main__\nNode\np2337\n(dp2338\ng5\nI12\nsba(i__main__\nNode\np2339\n(dp2340\ng5\nI12\nsba(i__main__\nNode\np2341\n(dp2342\ng5\nI12\nsba(i__main__\nNode\np2343\n(dp2344\ng5\nI12\nsba(i__main__\nNode\np2345\n(dp2346\ng5\nI12\nsba(i__main__\nNode\np2347\n(dp2348\ng5\nI12\nsba(i__main__\nNode\np2349\n(dp2350\ng5\nI12\nsba(i__main__\nNode\np2351\n(dp2352\ng5\nI11\nsba(i__main__\nNode\np2353\n(dp2354\ng5\nI12\nsba(i__main__\nNode\np2355\n(dp2356\ng5\nI11\nsba(i__main__\nNode\np2357\n(dp2358\ng5\nI12\nsbaa(lp2359\n(i__main__\nNode\np2360\n(dp2361\ng5\nI12\nsba(i__main__\nNode\np2362\n(dp2363\ng5\nI11\nsba(i__main__\nNode\np2364\n(dp2365\ng5\nI15\nsba(i__main__\nNode\np2366\n(dp2367\ng5\nI11\nsba(i__main__\nNode\np2368\n(dp2369\ng5\nI12\nsba(i__main__\nNode\np2370\n(dp2371\ng5\nI11\nsba(i__main__\nNode\np2372\n(dp2373\ng5\nI12\nsba(i__main__\nNode\np2374\n(dp2375\ng5\nI11\nsba(i__main__\nNode\np2376\n(dp2377\ng5\nI12\nsba(i__main__\nNode\np2378\n(dp2379\ng5\nI11\nsba(i__main__\nNode\np2380\n(dp2381\ng5\nI12\nsba(i__main__\nNode\np2382\n(dp2383\ng5\nI11\nsba(i__main__\nNode\np2384\n(dp2385\ng5\nI12\nsbaa(lp2386\n(i__main__\nNode\np2387\n(dp2388\ng5\nI12\nsba(i__main__\nNode\np2389\n(dp2390\ng5\nI11\nsba(i__main__\nNode\np2391\n(dp2392\ng5\nI12\nsba(i__main__\nNode\np2393\n(dp2394\ng5\nI11\nsba(i__main__\nNode\np2395\n(dp2396\ng5\nI12\nsba(i__main__\nNode\np2397\n(dp2398\ng5\nI11\nsba(i__main__\nNode\np2399\n(dp2400\ng5\nI12\nsba(i__main__\nNode\np2401\n(dp2402\ng5\nI11\nsba(i__main__\nNode\np2403\n(dp2404\ng5\nI15\nsba(i__main__\nNode\np2405\n(dp2406\ng5\nI11\nsba(i__main__\nNode\np2407\n(dp2408\ng5\nI12\nsba(i__main__\nNode\np2409\n(dp2410\ng5\nI11\nsba(i__main__\nNode\np2411\n(dp2412\ng5\nI12\nsbaa(lp2413\n(i__main__\nNode\np2414\n(dp2415\ng5\nI12\nsba(i__main__\nNode\np2416\n(dp2417\ng5\nI11\nsba(i__main__\nNode\np2418\n(dp2419\ng5\nI12\nsba(i__main__\nNode\np2420\n(dp2421\ng5\nI11\nsba(i__main__\nNode\np2422\n(dp2423\ng5\nI15\nsba(i__main__\nNode\np2424\n(dp2425\ng5\nI11\nsba(i__main__\nNode\np2426\n(dp2427\ng5\nI15\nsba(i__main__\nNode\np2428\n(dp2429\ng5\nI11\nsba(i__main__\nNode\np2430\n(dp2431\ng5\nI12\nsba(i__main__\nNode\np2432\n(dp2433\ng5\nI11\nsba(i__main__\nNode\np2434\n(dp2435\ng5\nI12\nsba(i__main__\nNode\np2436\n(dp2437\ng5\nI14\nsg497\nI2\nsba(i__main__\nNode\np2438\n(dp2439\ng5\nI12\nsbaa(lp2440\n(i__main__\nNode\np2441\n(dp2442\ng5\nI12\nsba(i__main__\nNode\np2443\n(dp2444\ng5\nI12\nsba(i__main__\nNode\np2445\n(dp2446\ng5\nI12\nsba(i__main__\nNode\np2447\n(dp2448\ng5\nI12\nsba(i__main__\nNode\np2449\n(dp2450\ng5\nI12\nsba(i__main__\nNode\np2451\n(dp2452\ng5\nI12\nsba(i__main__\nNode\np2453\n(dp2454\ng5\nI12\nsba(i__main__\nNode\np2455\n(dp2456\ng5\nI12\nsba(i__main__\nNode\np2457\n(dp2458\ng5\nI12\nsba(i__main__\nNode\np2459\n(dp2460\ng5\nI12\nsba(i__main__\nNode\np2461\n(dp2462\ng5\nI12\nsba(i__main__\nNode\np2463\n(dp2464\ng5\nI12\nsba(i__main__\nNode\np2465\n(dp2466\ng5\nI12\nsbaas."
p2
sS'maze_map'
p3
S'(dp0\nI0\n(dp1\nI11\nc__builtin__\nset\np2\n((lp3\n(I0\nI5\nI5\ntp4\na(I0\nI10\nI4\ntp5\na(I0\nI5\nI7\ntp6\na(I0\nI10\nI6\ntp7\na(I0\nI2\nI1\ntp8\na(I0\nI5\nI1\ntp9\na(I0\nI7\nI10\ntp10\na(I0\nI10\nI8\ntp11\na(I0\nI2\nI3\ntp12\na(I0\nI4\nI10\ntp13\na(I0\nI5\nI3\ntp14\na(I0\nI7\nI8\ntp15\na(I0\nI10\nI10\ntp16\na(I0\nI2\nI5\ntp17\na(I0\nI4\nI8\ntp18\na(I0\nI7\nI6\ntp19\na(I0\nI1\nI8\ntp20\na(I0\nI2\nI7\ntp21\na(I0\nI7\nI4\ntp22\na(I0\nI9\nI1\ntp23\na(I0\nI1\nI10\ntp24\na(I0\nI8\nI10\ntp25\na(I0\nI7\nI2\ntp26\na(I0\nI9\nI3\ntp27\na(I0\nI4\nI2\ntp28\na(I0\nI8\nI8\ntp29\na(I0\nI9\nI5\ntp30\na(I0\nI8\nI6\ntp31\na(I0\nI9\nI7\ntp32\na(I0\nI4\nI6\ntp33\na(I0\nI6\nI9\ntp34\na(I0\nI8\nI4\ntp35\na(I0\nI9\nI9\ntp36\na(I0\nI11\nI2\ntp37\na(I0\nI1\nI2\ntp38\na(I0\nI3\nI11\ntp39\na(I0\nI4\nI4\ntp40\na(I0\nI6\nI11\ntp41\na(I0\nI8\nI2\ntp42\na(I0\nI9\nI11\ntp43\na(I0\nI1\nI4\ntp44\na(I0\nI3\nI9\ntp45\na(I0\nI6\nI5\ntp46\na(I0\nI11\nI6\ntp47\na(I0\nI1\nI6\ntp48\na(I0\nI6\nI7\ntp49\na(I0\nI11\nI4\ntp50\na(I0\nI6\nI1\ntp51\na(I0\nI11\nI10\ntp52\na(I0\nI3\nI3\ntp53\na(I0\nI6\nI3\ntp54\na(I0\nI11\nI8\ntp55\na(I0\nI3\nI1\ntp56\na(I0\nI3\nI7\ntp57\na(I0\nI5\nI8\ntp58\na(I0\nI10\nI1\ntp59\na(I0\nI2\nI8\ntp60\na(I0\nI3\nI5\ntp61\na(I0\nI5\nI10\ntp62\na(I0\nI10\nI3\ntp63\na(I0\nI2\nI10\ntp64\na(I0\nI5\nI4\ntp65\na(I0\nI10\nI5\ntp66\na(I0\nI5\nI6\ntp67\na(I0\nI10\nI7\ntp68\na(I0\nI10\nI9\ntp69\na(I0\nI4\nI11\ntp70\na(I0\nI5\nI2\ntp71\na(I0\nI7\nI11\ntp72\na(I0\nI10\nI11\ntp73\na(I0\nI2\nI2\ntp74\na(I0\nI4\nI9\ntp75\na(I0\nI7\nI9\ntp76\na(I0\nI2\nI4\ntp77\na(I0\nI7\nI7\ntp78\na(I0\nI1\nI9\ntp79\na(I0\nI2\nI6\ntp80\na(I0\nI8\nI11\ntp81\na(I0\nI7\nI5\ntp82\na(I0\nI9\nI2\ntp83\na(I0\nI1\nI11\ntp84\na(I0\nI4\nI3\ntp85\na(I0\nI8\nI9\ntp86\na(I0\nI7\nI3\ntp87\na(I0\nI9\nI4\ntp88\na(I0\nI4\nI1\ntp89\na(I0\nI8\nI7\ntp90\na(I0\nI7\nI1\ntp91\na(I0\nI9\nI6\ntp92\na(I0\nI4\nI7\ntp93\na(I0\nI8\nI5\ntp94\na(I0\nI9\nI8\ntp95\na(I0\nI1\nI1\ntp96\na(I0\nI3\nI10\ntp97\na(I0\nI4\nI5\ntp98\na(I0\nI6\nI8\ntp99\na(I0\nI8\nI3\ntp100\na(I0\nI9\nI10\ntp101\na(I0\nI11\nI3\ntp102\na(I0\nI1\nI3\ntp103\na(I0\nI3\nI8\ntp104\na(I0\nI6\nI10\ntp105\na(I0\nI8\nI1\ntp106\na(I0\nI11\nI1\ntp107\na(I0\nI1\nI5\ntp108\na(I0\nI6\nI4\ntp109\na(I0\nI11\nI7\ntp110\na(I0\nI1\nI7\ntp111\na(I0\nI6\nI6\ntp112\na(I0\nI11\nI5\ntp113\na(I0\nI3\nI2\ntp114\na(I0\nI11\nI11\ntp115\na(I0\nI6\nI2\ntp116\na(I0\nI11\nI9\ntp117\na(I0\nI3\nI6\ntp118\na(I0\nI2\nI9\ntp119\na(I0\nI3\nI4\ntp120\na(I0\nI5\nI9\ntp121\na(I0\nI2\nI11\ntp122\na(I0\nI5\nI11\ntp123\na(I0\nI10\nI2\ntp124\natp125\nRp126\nssI1\n(dp127\nI11\ng2\n((lp128\n(I1\nI1\nI7\ntp129\na(I1\nI10\nI1\ntp130\na(I1\nI2\nI10\ntp131\na(I1\nI11\nI10\ntp132\na(I1\nI10\nI3\ntp133\na(I1\nI11\nI8\ntp134\na(I1\nI10\nI5\ntp135\na(I1\nI11\nI6\ntp136\na(I1\nI8\nI2\ntp137\na(I1\nI11\nI2\ntp138\na(I1\nI10\nI11\ntp139\na(I1\nI5\nI5\ntp140\na(I1\nI3\nI7\ntp141\na(I1\nI5\nI7\ntp142\na(I1\nI3\nI5\ntp143\na(I1\nI5\nI1\ntp144\na(I1\nI3\nI3\ntp145\na(I1\nI5\nI3\ntp146\na(I1\nI3\nI1\ntp147\na(I1\nI1\nI10\ntp148\na(I1\nI7\nI11\ntp149\na(I1\nI6\nI2\ntp150\na(I1\nI4\nI11\ntp151\na(I1\nI7\nI9\ntp152\na(I1\nI4\nI9\ntp153\na(I1\nI4\nI7\ntp154\na(I1\nI2\nI9\ntp155\na(I1\nI11\nI11\ntp156\na(I1\nI4\nI5\ntp157\na(I1\nI10\nI2\ntp158\na(I1\nI2\nI11\ntp159\na(I1\nI10\nI6\ntp160\na(I1\nI7\nI7\ntp161\na(I1\nI11\nI5\ntp162\na(I1\nI10\nI8\ntp163\na(I1\nI2\nI1\ntp164\na(I1\nI7\nI5\ntp165\na(I1\nI11\nI3\ntp166\na(I1\nI10\nI10\ntp167\na(I1\nI8\nI3\ntp168\na(I1\nI2\nI3\ntp169\na(I1\nI11\nI1\ntp170\na(I1\nI8\nI1\ntp171\na(I1\nI2\nI5\ntp172\na(I1\nI8\nI7\ntp173\na(I1\nI2\nI7\ntp174\na(I1\nI8\nI5\ntp175\na(I1\nI8\nI11\ntp176\na(I1\nI8\nI9\ntp177\na(I1\nI1\nI9\ntp178\na(I1\nI6\nI9\ntp179\na(I1\nI1\nI11\ntp180\na(I1\nI6\nI5\ntp181\na(I1\nI6\nI7\ntp182\na(I1\nI1\nI1\ntp183\na(I1\nI6\nI1\ntp184\na(I1\nI4\nI10\ntp185\na(I1\nI1\nI3\ntp186\na(I1\nI6\nI3\ntp187\na(I1\nI1\nI5\ntp188\natp189\nRp190\nsI12\ng2\n((lp191\n(I1\nI3\nI2\ntp192\na(I1\nI4\nI4\ntp193\na(I1\nI4\nI8\ntp194\na(I1\nI1\nI6\ntp195\na(I1\nI7\nI10\ntp196\na(I1\nI4\nI2\ntp197\na(I1\nI7\nI3\ntp198\na(I1\nI10\nI4\ntp199\na(I1\nI5\nI8\ntp200\na(I1\nI7\nI2\ntp201\na(I1\nI9\nI1\ntp202\na(I1\nI7\nI1\ntp203\na(I1\nI1\nI8\ntp204\na(I1\nI11\nI7\ntp205\na(I1\nI6\nI10\ntp206\na(I1\nI9\nI3\ntp207\na(I1\nI8\nI8\ntp208\na(I1\nI6\nI8\ntp209\na(I1\nI6\nI4\ntp210\na(I1\nI7\nI6\ntp211\na(I1\nI11\nI4\ntp212\na(I1\nI10\nI9\ntp213\na(I1\nI3\nI8\ntp214\na(I1\nI3\nI9\ntp215\na(I1\nI9\nI4\ntp216\na(I1\nI5\nI4\ntp217\na(I1\nI6\nI6\ntp218\na(I1\nI5\nI11\ntp219\na(I1\nI7\nI4\ntp220\na(I1\nI9\nI7\ntp221\na(I1\nI1\nI2\ntp222\na(I1\nI9\nI6\ntp223\na(I1\nI2\nI4\ntp224\na(I1\nI2\nI2\ntp225\na(I1\nI3\nI10\ntp226\na(I1\nI9\nI9\ntp227\na(I1\nI8\nI10\ntp228\na(I1\nI8\nI6\ntp229\na(I1\nI9\nI8\ntp230\na(I1\nI2\nI6\ntp231\na(I1\nI3\nI6\ntp232\na(I1\nI9\nI10\ntp233\na(I1\nI5\nI10\ntp234\na(I1\nI5\nI9\ntp235\na(I1\nI3\nI4\ntp236\na(I1\nI4\nI6\ntp237\natp238\nRp239\nsI14\ng2\n((lp240\n(I1\nI5\nI2\ntp241\na(I1\nI6\nI11\ntp242\natp243\nRp244\nsI15\ng2\n((lp245\n(I1\nI2\nI8\ntp246\na(I1\nI7\nI8\ntp247\na(I1\nI9\nI11\ntp248\na(I1\nI4\nI1\ntp249\na(I1\nI8\nI4\ntp250\na(I1\nI5\nI6\ntp251\na(I1\nI10\nI7\ntp252\na(I1\nI1\nI4\ntp253\na(I1\nI3\nI11\ntp254\na(I1\nI9\nI2\ntp255\na(I1\nI11\nI9\ntp256\na(I1\nI4\nI3\ntp257\na(I1\nI9\nI5\ntp258\natp259\nRp260\nssI2\n(dp261\nI11\ng2\n((lp262\n(I2\nI7\nI2\ntp263\na(I2\nI5\nI11\ntp264\na(I2\nI2\nI4\ntp265\na(I2\nI8\nI2\ntp266\na(I2\nI7\nI4\ntp267\na(I2\nI7\nI6\ntp268\na(I2\nI6\nI5\ntp269\na(I2\nI5\nI1\ntp270\na(I2\nI11\nI7\ntp271\na(I2\nI11\nI1\ntp272\na(I2\nI4\nI8\ntp273\na(I2\nI6\nI11\ntp274\na(I2\nI9\nI6\ntp275\na(I2\nI6\nI9\ntp276\na(I2\nI9\nI4\ntp277\na(I2\nI11\nI9\ntp278\na(I2\nI2\nI11\ntp279\na(I2\nI3\nI2\ntp280\na(I2\nI1\nI11\ntp281\na(I2\nI10\nI2\ntp282\na(I2\nI2\nI9\ntp283\na(I2\nI1\nI9\ntp284\na(I2\nI4\nI4\ntp285\na(I2\nI1\nI7\ntp286\na(I2\nI10\nI6\ntp287\na(I2\nI7\nI9\ntp288\na(I2\nI4\nI6\ntp289\na(I2\nI10\nI4\ntp290\na(I2\nI7\nI11\ntp291\na(I2\nI2\nI1\ntp292\na(I2\nI1\nI1\ntp293\na(I2\nI2\nI7\ntp294\na(I2\nI8\nI1\ntp295\na(I2\nI7\nI1\ntp296\na(I2\nI7\nI5\ntp297\na(I2\nI6\nI6\ntp298\na(I2\nI6\nI4\ntp299\na(I2\nI11\nI4\ntp300\na(I2\nI8\nI11\ntp301\na(I2\nI11\nI6\ntp302\na(I2\nI4\nI9\ntp303\na(I2\nI11\nI2\ntp304\na(I2\nI4\nI11\ntp305\na(I2\nI3\nI11\ntp306\na(I2\nI9\nI7\ntp307\na(I2\nI6\nI8\ntp308\na(I2\nI3\nI1\ntp309\na(I2\nI10\nI1\ntp310\na(I2\nI4\nI5\ntp311\na(I2\nI1\nI6\ntp312\na(I2\nI10\nI7\ntp313\na(I2\nI7\nI8\ntp314\na(I2\nI4\nI7\ntp315\na(I2\nI1\nI4\ntp316\na(I2\nI1\nI2\ntp317\na(I2\nI10\nI11\ntp318\na(I2\nI9\nI11\ntp319\na(I2\nI2\nI2\ntp320\na(I2\nI10\nI9\ntp321\na(I2\nI9\nI9\ntp322\na(I2\nI2\nI6\ntp323\natp324\nRp325\nsI12\ng2\n((lp326\n(I2\nI3\nI5\ntp327\na(I2\nI5\nI10\ntp328\na(I2\nI7\nI7\ntp329\na(I2\nI5\nI6\ntp330\na(I2\nI3\nI6\ntp331\na(I2\nI9\nI5\ntp332\na(I2\nI8\nI3\ntp333\na(I2\nI7\nI3\ntp334\na(I2\nI5\nI8\ntp335\na(I2\nI11\nI8\ntp336\na(I2\nI5\nI9\ntp337\na(I2\nI4\nI2\ntp338\na(I2\nI1\nI10\ntp339\na(I2\nI10\nI3\ntp340\na(I2\nI11\nI10\ntp341\na(I2\nI9\nI3\ntp342\na(I2\nI4\nI3\ntp343\na(I2\nI3\nI3\ntp344\na(I2\nI1\nI8\ntp345\na(I2\nI5\nI7\ntp346\na(I2\nI9\nI1\ntp347\na(I2\nI9\nI2\ntp348\na(I2\nI8\nI9\ntp349\na(I2\nI8\nI8\ntp350\na(I2\nI6\nI3\ntp351\na(I2\nI5\nI3\ntp352\na(I2\nI6\nI2\ntp353\na(I2\nI8\nI10\ntp354\na(I2\nI10\nI5\ntp355\na(I2\nI1\nI5\ntp356\na(I2\nI7\nI10\ntp357\na(I2\nI9\nI8\ntp358\na(I2\nI2\nI3\ntp359\na(I2\nI3\nI7\ntp360\na(I2\nI3\nI8\ntp361\na(I2\nI10\nI10\ntp362\na(I2\nI8\nI5\ntp363\na(I2\nI8\nI4\ntp364\na(I2\nI5\nI5\ntp365\na(I2\nI3\nI10\ntp366\na(I2\nI8\nI7\ntp367\na(I2\nI4\nI10\ntp368\na(I2\nI3\nI4\ntp369\na(I2\nI8\nI6\ntp370\na(I2\nI6\nI10\ntp371\natp372\nRp373\nsI14\ng2\n((lp374\n(I2\nI5\nI2\ntp375\na(I2\nI11\nI11\ntp376\natp377\nRp378\nsI15\ng2\n((lp379\n(I2\nI6\nI7\ntp380\na(I2\nI2\nI5\ntp381\na(I2\nI3\nI9\ntp382\na(I2\nI11\nI5\ntp383\na(I2\nI2\nI10\ntp384\na(I2\nI6\nI1\ntp385\na(I2\nI10\nI8\ntp386\na(I2\nI11\nI3\ntp387\na(I2\nI9\nI10\ntp388\na(I2\nI2\nI8\ntp389\na(I2\nI5\nI4\ntp390\na(I2\nI4\nI1\ntp391\na(I2\nI1\nI3\ntp392\natp393\nRp394\nssI3\n(dp395\nI11\ng2\n((lp396\n(I3\nI1\nI10\ntp397\na(I3\nI5\nI11\ntp398\na(I3\nI6\nI11\ntp399\na(I3\nI5\nI9\ntp400\na(I3\nI7\nI4\ntp401\na(I3\nI6\nI9\ntp402\na(I3\nI1\nI6\ntp403\na(I3\nI7\nI6\ntp404\na(I3\nI1\nI4\ntp405\na(I3\nI2\nI2\ntp406\na(I3\nI1\nI2\ntp407\na(I3\nI7\nI2\ntp408\na(I3\nI2\nI6\ntp409\na(I3\nI9\nI7\ntp410\na(I3\nI2\nI4\ntp411\na(I3\nI9\nI5\ntp412\na(I3\nI9\nI3\ntp413\na(I3\nI4\nI5\ntp414\na(I3\nI9\nI1\ntp415\na(I3\nI4\nI7\ntp416\na(I3\nI3\nI1\ntp417\na(I3\nI4\nI1\ntp418\na(I3\nI11\nI8\ntp419\na(I3\nI3\nI3\ntp420\na(I3\nI4\nI3\ntp421\na(I3\nI9\nI11\ntp422\na(I3\nI11\nI10\ntp423\na(I3\nI3\nI5\ntp424\na(I3\nI6\nI6\ntp425\na(I3\nI9\nI9\ntp426\na(I3\nI3\nI7\ntp427\na(I3\nI6\nI4\ntp428\na(I3\nI3\nI9\ntp429\na(I3\nI4\nI9\ntp430\na(I3\nI6\nI2\ntp431\na(I3\nI3\nI11\ntp432\na(I3\nI5\nI2\ntp433\na(I3\nI4\nI11\ntp434\na(I3\nI11\nI2\ntp435\na(I3\nI11\nI4\ntp436\na(I3\nI5\nI6\ntp437\na(I3\nI8\nI9\ntp438\na(I3\nI11\nI6\ntp439\na(I3\nI1\nI11\ntp440\na(I3\nI5\nI4\ntp441\na(I3\nI8\nI11\ntp442\na(I3\nI1\nI9\ntp443\na(I3\nI7\nI5\ntp444\na(I3\nI1\nI7\ntp445\na(I3\nI7\nI7\ntp446\na(I3\nI1\nI5\ntp447\na(I3\nI7\nI1\ntp448\na(I3\nI1\nI3\ntp449\na(I3\nI2\nI3\ntp450\na(I3\nI7\nI3\ntp451\na(I3\nI1\nI1\ntp452\na(I3\nI2\nI1\ntp453\na(I3\nI2\nI7\ntp454\na(I3\nI9\nI6\ntp455\na(I3\nI2\nI5\ntp456\na(I3\nI7\nI9\ntp457\na(I3\nI9\nI4\ntp458\na(I3\nI4\nI4\ntp459\na(I3\nI7\nI11\ntp460\na(I3\nI9\nI2\ntp461\na(I3\nI4\nI6\ntp462\na(I3\nI11\nI9\ntp463\na(I3\nI4\nI2\ntp464\na(I3\nI3\nI2\ntp465\na(I3\nI3\nI4\ntp466\na(I3\nI6\nI7\ntp467\na(I3\nI9\nI8\ntp468\na(I3\nI3\nI6\ntp469\na(I3\nI6\nI5\ntp470\na(I3\nI11\nI1\ntp471\na(I3\nI5\nI3\ntp472\na(I3\nI6\nI3\ntp473\na(I3\nI11\nI3\ntp474\na(I3\nI5\nI1\ntp475\na(I3\nI6\nI1\ntp476\na(I3\nI11\nI5\ntp477\na(I3\nI5\nI7\ntp478\na(I3\nI11\nI7\ntp479\na(I3\nI5\nI5\ntp480\natp481\nRp482\nsI12\ng2\n((lp483\n(I3\nI8\nI10\ntp484\na(I3\nI10\nI6\ntp485\na(I3\nI10\nI7\ntp486\na(I3\nI5\nI10\ntp487\na(I3\nI1\nI8\ntp488\na(I3\nI6\nI8\ntp489\na(I3\nI10\nI5\ntp490\na(I3\nI5\nI8\ntp491\na(I3\nI8\nI4\ntp492\na(I3\nI4\nI10\ntp493\na(I3\nI10\nI10\ntp494\na(I3\nI8\nI2\ntp495\na(I3\nI10\nI11\ntp496\na(I3\nI8\nI3\ntp497\na(I3\nI10\nI8\ntp498\na(I3\nI4\nI8\ntp499\na(I3\nI10\nI9\ntp500\na(I3\nI8\nI5\ntp501\na(I3\nI3\nI8\ntp502\na(I3\nI8\nI6\ntp503\na(I3\nI8\nI7\ntp504\na(I3\nI3\nI10\ntp505\na(I3\nI7\nI10\ntp506\na(I3\nI6\nI10\ntp507\na(I3\nI10\nI2\ntp508\na(I3\nI7\nI8\ntp509\na(I3\nI10\nI3\ntp510\na(I3\nI8\nI8\ntp511\na(I3\nI2\nI8\ntp512\na(I3\nI2\nI9\ntp513\na(I3\nI2\nI10\ntp514\na(I3\nI10\nI1\ntp515\natp516\nRp517\nsI14\ng2\n((lp518\n(I3\nI11\nI11\ntp519\natp520\nRp521\nsI15\ng2\n((lp522\n(I3\nI2\nI11\ntp523\na(I3\nI10\nI4\ntp524\na(I3\nI9\nI10\ntp525\na(I3\nI8\nI1\ntp526\natp527\nRp528\nssI4\n(dp529\nI11\ng2\n((lp530\n(I4\nI2\nI2\ntp531\na(I4\nI10\nI5\ntp532\na(I4\nI10\nI7\ntp533\na(I4\nI2\nI8\ntp534\na(I4\nI1\nI5\ntp535\na(I4\nI2\nI10\ntp536\na(I4\nI6\nI1\ntp537\na(I4\nI1\nI1\ntp538\na(I4\nI6\nI3\ntp539\na(I4\nI1\nI3\ntp540\na(I4\nI6\nI5\ntp541\na(I4\nI6\nI7\ntp542\na(I4\nI6\nI9\ntp543\na(I4\nI8\nI11\ntp544\na(I4\nI9\nI2\ntp545\na(I4\nI11\nI11\ntp546\na(I4\nI8\nI9\ntp547\na(I4\nI11\nI9\ntp548\na(I4\nI11\nI7\ntp549\na(I4\nI4\nI11\ntp550\na(I4\nI11\nI5\ntp551\na(I4\nI4\nI9\ntp552\na(I4\nI11\nI3\ntp553\na(I4\nI2\nI5\ntp554\na(I4\nI4\nI7\ntp555\na(I4\nI11\nI1\ntp556\na(I4\nI8\nI7\ntp557\na(I4\nI4\nI5\ntp558\na(I4\nI2\nI1\ntp559\na(I4\nI8\nI5\ntp560\na(I4\nI10\nI8\ntp561\na(I4\nI4\nI3\ntp562\na(I4\nI7\nI3\ntp563\na(I4\nI2\nI3\ntp564\na(I4\nI4\nI1\ntp565\na(I4\nI7\nI1\ntp566\na(I4\nI2\nI11\ntp567\na(I4\nI1\nI6\ntp568\na(I4\nI1\nI2\ntp569\na(I4\nI6\nI2\ntp570\na(I4\nI6\nI6\ntp571\na(I4\nI1\nI8\ntp572\na(I4\nI9\nI1\ntp573\na(I4\nI6\nI8\ntp574\na(I4\nI1\nI10\ntp575\na(I4\nI8\nI10\ntp576\na(I4\nI9\nI3\ntp577\na(I4\nI11\nI8\ntp578\na(I4\nI6\nI10\ntp579\na(I4\nI8\nI8\ntp580\na(I4\nI4\nI10\ntp581\na(I4\nI11\nI2\ntp582\na(I4\nI4\nI8\ntp583\na(I4\nI4\nI6\ntp584\na(I4\nI2\nI6\ntp585\na(I4\nI8\nI6\ntp586\na(I4\nI10\nI9\ntp587\na(I4\nI4\nI4\ntp588\na(I4\nI7\nI2\ntp589\na(I4\nI10\nI11\ntp590\na(I4\nI4\nI2\ntp591\natp592\nRp593\nsI12\ng2\n((lp594\n(I4\nI3\nI4\ntp595\na(I4\nI9\nI7\ntp596\na(I4\nI7\nI7\ntp597\na(I4\nI7\nI8\ntp598\na(I4\nI1\nI9\ntp599\na(I4\nI3\nI2\ntp600\na(I4\nI10\nI4\ntp601\na(I4\nI3\nI3\ntp602\na(I4\nI7\nI6\ntp603\na(I4\nI7\nI4\ntp604\na(I4\nI9\nI5\ntp605\na(I4\nI9\nI10\ntp606\na(I4\nI11\nI6\ntp607\na(I4\nI1\nI7\ntp608\na(I4\nI7\nI11\ntp609\na(I4\nI1\nI4\ntp610\na(I4\nI10\nI3\ntp611\na(I4\nI5\nI1\ntp612\na(I4\nI7\nI9\ntp613\na(I4\nI3\nI10\ntp614\na(I4\nI5\nI3\ntp615\na(I4\nI9\nI8\ntp616\na(I4\nI5\nI4\ntp617\na(I4\nI9\nI6\ntp618\na(I4\nI3\nI8\ntp619\na(I4\nI5\nI5\ntp620\na(I4\nI8\nI1\ntp621\na(I4\nI2\nI4\ntp622\na(I4\nI3\nI9\ntp623\na(I4\nI5\nI6\ntp624\na(I4\nI7\nI10\ntp625\na(I4\nI2\nI7\ntp626\na(I4\nI5\nI7\ntp627\na(I4\nI10\nI1\ntp628\na(I4\nI9\nI9\ntp629\na(I4\nI8\nI2\ntp630\na(I4\nI7\nI5\ntp631\na(I4\nI5\nI8\ntp632\na(I4\nI11\nI10\ntp633\na(I4\nI5\nI9\ntp634\na(I4\nI3\nI6\ntp635\na(I4\nI5\nI10\ntp636\na(I4\nI3\nI7\ntp637\na(I4\nI8\nI4\ntp638\na(I4\nI9\nI4\ntp639\na(I4\nI5\nI11\ntp640\natp641\nRp642\nsI14\ng2\n((lp643\n(I4\nI6\nI11\ntp644\na(I4\nI1\nI11\ntp645\natp646\nRp647\nsI15\ng2\n((lp648\n(I4\nI5\nI2\ntp649\na(I4\nI10\nI10\ntp650\na(I4\nI2\nI9\ntp651\na(I4\nI3\nI5\ntp652\na(I4\nI8\nI3\ntp653\na(I4\nI3\nI11\ntp654\na(I4\nI3\nI1\ntp655\na(I4\nI6\nI4\ntp656\na(I4\nI9\nI11\ntp657\na(I4\nI11\nI4\ntp658\na(I4\nI10\nI2\ntp659\na(I4\nI10\nI6\ntp660\natp661\nRp662\nssI5\n(dp663\nI11\ng2\n((lp664\n(I5\nI10\nI8\ntp665\na(I5\nI5\nI1\ntp666\na(I5\nI2\nI1\ntp667\na(I5\nI10\nI10\ntp668\na(I5\nI2\nI3\ntp669\na(I5\nI10\nI4\ntp670\na(I5\nI10\nI6\ntp671\na(I5\nI5\nI7\ntp672\na(I5\nI8\nI11\ntp673\na(I5\nI8\nI7\ntp674\na(I5\nI3\nI6\ntp675\na(I5\nI7\nI11\ntp676\na(I5\nI3\nI4\ntp677\na(I5\nI11\nI3\ntp678\na(I5\nI6\nI4\ntp679\na(I5\nI3\nI10\ntp680\na(I5\nI11\nI1\ntp681\na(I5\nI7\nI7\ntp682\na(I5\nI8\nI1\ntp683\na(I5\nI3\nI8\ntp684\na(I5\nI1\nI7\ntp685\na(I5\nI11\nI7\ntp686\na(I5\nI1\nI1\ntp687\na(I5\nI6\nI10\ntp688\na(I5\nI1\nI3\ntp689\na(I5\nI7\nI1\ntp690\na(I5\nI4\nI11\ntp691\na(I5\nI2\nI4\ntp692\na(I5\nI1\nI11\ntp693\na(I5\nI10\nI11\ntp694\na(I5\nI5\nI2\ntp695\na(I5\nI5\nI4\ntp696\na(I5\nI10\nI7\ntp697\na(I5\nI5\nI6\ntp698\na(I5\nI10\nI1\ntp699\na(I5\nI8\nI10\ntp700\na(I5\nI5\nI8\ntp701\na(I5\nI3\nI3\ntp702\na(I5\nI11\nI10\ntp703\na(I5\nI10\nI3\ntp704\na(I5\nI8\nI8\ntp705\na(I5\nI3\nI1\ntp706\na(I5\nI11\nI8\ntp707\na(I5\nI8\nI6\ntp708\na(I5\nI3\nI7\ntp709\na(I5\nI8\nI4\ntp710\na(I5\nI7\nI10\ntp711\na(I5\nI8\nI2\ntp712\na(I5\nI3\nI11\ntp713\na(I5\nI7\nI8\ntp714\na(I5\nI1\nI4\ntp715\na(I5\nI7\nI6\ntp716\na(I5\nI1\nI6\ntp717\na(I5\nI11\nI6\ntp718\na(I5\nI7\nI4\ntp719\na(I5\nI11\nI4\ntp720\na(I5\nI7\nI2\ntp721\na(I5\nI4\nI10\ntp722\na(I5\nI1\nI8\ntp723\na(I5\nI1\nI10\ntp724\natp725\nRp726\nsI12\ng2\n((lp727\n(I5\nI2\nI6\ntp728\na(I5\nI6\nI2\ntp729\na(I5\nI9\nI9\ntp730\na(I5\nI2\nI7\ntp731\na(I5\nI7\nI9\ntp732\na(I5\nI10\nI2\ntp733\na(I5\nI1\nI5\ntp734\na(I5\nI9\nI10\ntp735\na(I5\nI6\nI5\ntp736\na(I5\nI6\nI7\ntp737\na(I5\nI10\nI5\ntp738\na(I5\nI7\nI5\ntp739\na(I5\nI6\nI6\ntp740\na(I5\nI6\nI8\ntp741\na(I5\nI6\nI3\ntp742\na(I5\nI5\nI5\ntp743\na(I5\nI6\nI9\ntp744\na(I5\nI4\nI2\ntp745\na(I5\nI9\nI8\ntp746\na(I5\nI7\nI3\ntp747\na(I5\nI4\nI3\ntp748\na(I5\nI9\nI5\ntp749\na(I5\nI1\nI2\ntp750\na(I5\nI2\nI8\ntp751\na(I5\nI4\nI1\ntp752\na(I5\nI5\nI9\ntp753\na(I5\nI2\nI9\ntp754\na(I5\nI4\nI6\ntp755\na(I5\nI9\nI4\ntp756\na(I5\nI4\nI5\ntp757\na(I5\nI4\nI7\ntp758\na(I5\nI6\nI1\ntp759\na(I5\nI5\nI11\ntp760\na(I5\nI3\nI2\ntp761\na(I5\nI2\nI11\ntp762\na(I5\nI11\nI9\ntp763\na(I5\nI9\nI7\ntp764\na(I5\nI9\nI1\ntp765\na(I5\nI9\nI2\ntp766\na(I5\nI9\nI3\ntp767\na(I5\nI2\nI5\ntp768\na(I5\nI4\nI9\ntp769\na(I5\nI3\nI5\ntp770\na(I5\nI10\nI9\ntp771\natp772\nRp773\nsI14\ng2\n((lp774\n(I5\nI11\nI11\ntp775\na(I5\nI6\nI11\ntp776\natp777\nRp778\nsI15\ng2\n((lp779\n(I5\nI5\nI3\ntp780\na(I5\nI8\nI9\ntp781\na(I5\nI1\nI9\ntp782\na(I5\nI11\nI2\ntp783\na(I5\nI4\nI4\ntp784\na(I5\nI8\nI3\ntp785\na(I5\nI4\nI8\ntp786\na(I5\nI2\nI10\ntp787\na(I5\nI2\nI2\ntp788\na(I5\nI3\nI9\ntp789\na(I5\nI11\nI5\ntp790\na(I5\nI9\nI6\ntp791\na(I5\nI9\nI11\ntp792\na(I5\nI8\nI5\ntp793\na(I5\nI5\nI10\ntp794\natp795\nRp796\nssI6\n(dp797\nI11\ng2\n((lp798\n(I6\nI8\nI9\ntp799\na(I6\nI7\nI2\ntp800\na(I6\nI5\nI11\ntp801\na(I6\nI8\nI11\ntp802\na(I6\nI5\nI9\ntp803\na(I6\nI5\nI7\ntp804\na(I6\nI3\nI9\ntp805\na(I6\nI10\nI11\ntp806\na(I6\nI5\nI5\ntp807\na(I6\nI3\nI11\ntp808\na(I6\nI6\nI3\ntp809\na(I6\nI10\nI9\ntp810\na(I6\nI5\nI3\ntp811\na(I6\nI6\nI1\ntp812\na(I6\nI10\nI7\ntp813\na(I6\nI5\nI1\ntp814\na(I6\nI6\nI7\ntp815\na(I6\nI10\nI5\ntp816\na(I6\nI3\nI1\ntp817\na(I6\nI6\nI5\ntp818\na(I6\nI10\nI3\ntp819\na(I6\nI9\nI3\ntp820\na(I6\nI3\nI3\ntp821\na(I6\nI10\nI1\ntp822\na(I6\nI9\nI1\ntp823\na(I6\nI3\nI5\ntp824\na(I6\nI4\nI4\ntp825\na(I6\nI9\nI7\ntp826\na(I6\nI2\nI6\ntp827\na(I6\nI3\nI7\ntp828\na(I6\nI4\nI6\ntp829\na(I6\nI9\nI5\ntp830\na(I6\nI2\nI4\ntp831\na(I6\nI1\nI2\ntp832\na(I6\nI9\nI11\ntp833\na(I6\nI2\nI2\ntp834\na(I6\nI4\nI2\ntp835\na(I6\nI9\nI9\ntp836\na(I6\nI1\nI6\ntp837\na(I6\nI1\nI4\ntp838\na(I6\nI7\nI9\ntp839\na(I6\nI7\nI11\ntp840\na(I6\nI7\nI5\ntp841\na(I6\nI7\nI7\ntp842\na(I6\nI7\nI1\ntp843\na(I6\nI7\nI3\ntp844\na(I6\nI5\nI6\ntp845\na(I6\nI5\nI4\ntp846\na(I6\nI11\nI1\ntp847\na(I6\nI5\nI2\ntp848\na(I6\nI11\nI3\ntp849\na(I6\nI6\nI2\ntp850\na(I6\nI11\nI5\ntp851\na(I6\nI11\nI7\ntp852\na(I6\nI6\nI6\ntp853\na(I6\nI4\nI9\ntp854\na(I6\nI11\nI9\ntp855\na(I6\nI3\nI2\ntp856\na(I6\nI1\nI11\ntp857\na(I6\nI6\nI4\ntp858\na(I6\nI4\nI11\ntp859\na(I6\nI3\nI4\ntp860\na(I6\nI1\nI9\ntp861\na(I6\nI4\nI5\ntp862\na(I6\nI2\nI7\ntp863\na(I6\nI3\nI6\ntp864\na(I6\nI4\nI7\ntp865\na(I6\nI2\nI5\ntp866\na(I6\nI4\nI1\ntp867\na(I6\nI2\nI3\ntp868\na(I6\nI1\nI3\ntp869\na(I6\nI4\nI3\ntp870\na(I6\nI2\nI1\ntp871\na(I6\nI1\nI1\ntp872\na(I6\nI1\nI7\ntp873\na(I6\nI1\nI5\ntp874\na(I6\nI2\nI11\ntp875\na(I6\nI7\nI4\ntp876\na(I6\nI2\nI9\ntp877\na(I6\nI7\nI6\ntp878\natp879\nRp880\nsI12\ng2\n((lp881\n(I6\nI1\nI8\ntp882\na(I6\nI8\nI6\ntp883\na(I6\nI9\nI6\ntp884\na(I6\nI8\nI8\ntp885\na(I6\nI6\nI11\ntp886\na(I6\nI4\nI10\ntp887\na(I6\nI6\nI10\ntp888\na(I6\nI9\nI4\ntp889\na(I6\nI5\nI8\ntp890\na(I6\nI8\nI10\ntp891\na(I6\nI6\nI8\ntp892\na(I6\nI9\nI10\ntp893\na(I6\nI1\nI10\ntp894\na(I6\nI9\nI8\ntp895\na(I6\nI8\nI4\ntp896\na(I6\nI11\nI2\ntp897\na(I6\nI10\nI10\ntp898\na(I6\nI7\nI8\ntp899\na(I6\nI8\nI1\ntp900\na(I6\nI5\nI10\ntp901\na(I6\nI8\nI3\ntp902\na(I6\nI10\nI6\ntp903\na(I6\nI8\nI2\ntp904\na(I6\nI11\nI8\ntp905\na(I6\nI2\nI10\ntp906\na(I6\nI8\nI5\ntp907\na(I6\nI10\nI4\ntp908\na(I6\nI4\nI8\ntp909\na(I6\nI11\nI10\ntp910\na(I6\nI2\nI8\ntp911\na(I6\nI8\nI7\ntp912\na(I6\nI10\nI2\ntp913\natp914\nRp915\nsI14\ng2\n((lp916\n(I6\nI11\nI11\ntp917\natp918\nRp919\nsI15\ng2\n((lp920\n(I6\nI6\nI9\ntp921\na(I6\nI3\nI10\ntp922\na(I6\nI7\nI10\ntp923\na(I6\nI9\nI2\ntp924\na(I6\nI11\nI4\ntp925\na(I6\nI3\nI8\ntp926\na(I6\nI10\nI8\ntp927\na(I6\nI11\nI6\ntp928\natp929\nRp930\nss.'
p4
sS'maze_info'
p5
S"(dp0\nI0\n(dp1\nsI1\n(dp2\nS'node'\np3\nc__builtin__\nset\np4\n((lp5\n(i__main__\nNode\np6\n(dp7\nS'Area'\np8\ng4\n((lp9\n(I1\nI8\nI11\ntp10\na(I1\nI7\nI11\ntp11\na(I1\nI6\nI11\ntp12\natp13\nRp14\nsS'Space'\np15\nI3\nsS'Cover'\np16\ng4\n((lp17\ng10\nag11\na(I1\nI9\nI11\ntp18\na(I1\nI7\nI10\ntp19\na(I1\nI6\nI10\ntp20\na(I1\nI5\nI11\ntp21\nag12\na(I1\nI8\nI10\ntp22\natp23\nRp24\nsS'Crack'\np25\ng4\n((lp26\ng18\nag19\nag22\nag20\nag21\natp27\nRp28\nsS'Forward'\np29\n(dp30\ng18\n(i__main__\nNode\np31\n(dp32\ng8\ng4\n((lp33\n(I1\nI10\nI10\ntp34\na(I1\nI11\nI10\ntp35\na(I1\nI11\nI11\ntp36\na(I1\nI10\nI11\ntp37\natp38\nRp39\nsg15\nI4\nsg16\ng4\n((lp40\n(I1\nI9\nI11\ntp41\nag35\na(I1\nI10\nI9\ntp42\nag34\na(I1\nI11\nI9\ntp43\nag36\nag37\natp44\nRp45\nsg25\ng4\n((lp46\ng41\nag42\nag43\natp47\nRp48\nsg29\n(dp49\ng43\n(i__main__\nNode\np50\n(dp51\ng8\ng4\n((lp52\n(I1\nI10\nI8\ntp53\na(I1\nI11\nI8\ntp54\natp55\nRp56\nsg15\nI2\nsg16\ng4\n((lp57\n(I1\nI10\nI9\ntp58\nag54\na(I1\nI10\nI7\ntp59\nag53\na(I1\nI11\nI9\ntp60\na(I1\nI11\nI7\ntp61\natp62\nRp63\nsg25\ng4\n((lp64\ng58\nag61\nag59\nag60\natp65\nRp66\nsg29\n(dp67\ng59\n(i__main__\nNode\np68\n(dp69\ng8\ng4\n((lp70\n(I1\nI11\nI5\ntp71\na(I1\nI11\nI6\ntp72\na(I1\nI10\nI6\ntp73\na(I1\nI10\nI5\ntp74\natp75\nRp76\nsg15\nI4\nsg16\ng4\n((lp77\ng74\na(I1\nI11\nI7\ntp78\nag73\nag72\na(I1\nI10\nI7\ntp79\na(I1\nI9\nI5\ntp80\nag71\na(I1\nI10\nI4\ntp81\na(I1\nI11\nI4\ntp82\natp83\nRp84\nsg25\ng4\n((lp85\ng78\nag79\nag81\nag80\nag82\natp86\nRp87\nsg29\n(dp88\ng80\n(i__main__\nNode\np89\n(dp90\ng8\ng4\n((lp91\n(I1\nI6\nI5\ntp92\na(I1\nI7\nI5\ntp93\na(I1\nI4\nI5\ntp94\na(I1\nI3\nI5\ntp95\na(I1\nI8\nI5\ntp96\na(I1\nI1\nI5\ntp97\na(I1\nI5\nI5\ntp98\na(I1\nI2\nI5\ntp99\natp100\nRp101\nsg15\nI8\nsg16\ng4\n((lp102\ng92\nag93\na(I1\nI6\nI4\ntp103\na(I1\nI6\nI6\ntp104\na(I1\nI1\nI6\ntp105\nag94\na(I1\nI1\nI4\ntp106\na(I1\nI2\nI4\ntp107\nag98\nag99\na(I1\nI8\nI6\ntp108\na(I1\nI5\nI4\ntp109\na(I1\nI2\nI6\ntp110\na(I1\nI3\nI6\ntp111\na(I1\nI8\nI4\ntp112\na(I1\nI5\nI6\ntp113\nag95\nag96\nag97\na(I1\nI3\nI4\ntp114\na(I1\nI4\nI6\ntp115\na(I1\nI7\nI6\ntp116\na(I1\nI9\nI5\ntp117\natp118\nRp119\nsg25\ng4\n((lp120\ng109\nag110\nag104\nag111\nag105\nag112\nag115\nag113\nag116\nag117\nag107\nag114\nag103\nag106\nag108\natp121\nRp122\nsg29\n(dp123\ng112\n(i__main__\nNode\np124\n(dp125\ng8\ng4\n((lp126\n(I1\nI8\nI3\ntp127\na(I1\nI8\nI2\ntp128\na(I1\nI8\nI1\ntp129\natp130\nRp131\nsg15\nI3\nsg16\ng4\n((lp132\n(I1\nI7\nI2\ntp133\nag128\na(I1\nI7\nI1\ntp134\nag127\na(I1\nI9\nI2\ntp135\na(I1\nI8\nI4\ntp136\na(I1\nI9\nI1\ntp137\na(I1\nI9\nI3\ntp138\nag129\na(I1\nI7\nI3\ntp139\natp140\nRp141\nsg25\ng4\n((lp142\ng133\nag137\nag134\nag136\nag138\nag135\nag139\natp143\nRp144\nsg29\n(dp145\ng135\n(i__main__\nNode\np146\n(dp147\ng8\ng4\n((lp148\n(I1\nI11\nI3\ntp149\na(I1\nI10\nI1\ntp150\na(I1\nI11\nI2\ntp151\na(I1\nI10\nI2\ntp152\na(I1\nI11\nI1\ntp153\na(I1\nI10\nI3\ntp154\natp155\nRp156\nsg15\nI6\nsg16\ng4\n((lp157\n(I1\nI9\nI3\ntp158\na(I1\nI9\nI1\ntp159\nag149\nag150\na(I1\nI9\nI2\ntp160\nag151\nag152\nag153\nag154\na(I1\nI10\nI4\ntp161\na(I1\nI11\nI4\ntp162\natp163\nRp164\nsg25\ng4\n((lp165\ng158\nag159\nag162\nag161\nag160\natp166\nRp167\nsg29\n(dp168\nsS'Backward'\np169\n(dp170\ng135\ng124\nssS'Special'\np171\nI00\nsbssg169\n(dp172\ng112\ng89\nssg171\nI00\nsbs(I1\nI1\nI4\ntp173\n(i__main__\nNode\np174\n(dp175\ng8\ng4\n((lp176\n(I1\nI1\nI3\ntp177\na(I1\nI3\nI3\ntp178\na(I1\nI2\nI3\ntp179\natp180\nRp181\nsg15\nI3\nsg16\ng4\n((lp182\n(I1\nI4\nI3\ntp183\na(I1\nI3\nI2\ntp184\nag177\nag179\na(I1\nI2\nI2\ntp185\na(I1\nI2\nI4\ntp186\na(I1\nI3\nI4\ntp187\na(I1\nI1\nI2\ntp188\nag173\nag178\natp189\nRp190\nsg25\ng4\n((lp191\ng184\nag185\nag188\nag173\nag186\nag187\nag183\natp192\nRp193\nsg29\n(dp194\n(I1\nI4\nI3\ntp195\n(i__main__\nNode\np196\n(dp197\ng8\ng4\n((lp198\n(I1\nI6\nI3\ntp199\na(I1\nI5\nI3\ntp200\na(I1\nI5\nI2\ntp201\na(I1\nI5\nI1\ntp202\na(I1\nI6\nI2\ntp203\na(I1\nI6\nI1\ntp204\natp205\nRp206\nsg15\nI6\nsg16\ng4\n((lp207\n(I1\nI5\nI4\ntp208\nag199\nag200\na(I1\nI7\nI2\ntp209\na(I1\nI7\nI1\ntp210\na(I1\nI7\nI3\ntp211\nag201\nag195\na(I1\nI4\nI1\ntp212\nag202\nag203\na(I1\nI6\nI4\ntp213\nag204\natp214\nRp215\nsg25\ng4\n((lp216\ng208\nag209\nag210\nag212\nag213\nag211\nag195\natp217\nRp218\nsg29\n(dp219\n(I1\nI4\nI1\ntp220\n(i__main__\nNode\np221\n(dp222\ng8\ng4\n((lp223\n(I1\nI2\nI1\ntp224\na(I1\nI1\nI1\ntp225\na(I1\nI3\nI1\ntp226\natp227\nRp228\nsg15\nI3\nsg16\ng4\n((lp229\ng224\na(I1\nI3\nI2\ntp230\na(I1\nI2\nI2\ntp231\nag225\nag220\nag226\na(I1\nI1\nI2\ntp232\natp233\nRp234\nsg25\ng4\n((lp235\ng231\nag220\nag230\nag232\natp236\nRp237\nsg29\n(dp238\nsg169\n(dp239\ng220\ng196\nssg171\nI00\nsbssg169\n(dp240\ng195\ng174\nssg171\nI00\nsbssg169\n(dp241\ng173\ng89\nssg171\nI00\nsbsg113\n(i__main__\nNode\np242\n(dp243\ng8\ng4\n((lp244\n(I1\nI4\nI7\ntp245\na(I1\nI3\nI7\ntp246\na(I1\nI1\nI7\ntp247\na(I1\nI8\nI7\ntp248\na(I1\nI5\nI7\ntp249\na(I1\nI2\nI7\ntp250\na(I1\nI6\nI7\ntp251\na(I1\nI7\nI7\ntp252\natp253\nRp254\nsg15\nI8\nsg16\ng4\n((lp255\ng245\na(I1\nI2\nI8\ntp256\nag247\na(I1\nI8\nI8\ntp257\na(I1\nI1\nI6\ntp258\nag251\na(I1\nI1\nI8\ntp259\na(I1\nI8\nI6\ntp260\nag246\na(I1\nI2\nI6\ntp261\nag248\nag249\na(I1\nI3\nI6\ntp262\nag250\na(I1\nI4\nI8\ntp263\na(I1\nI5\nI6\ntp264\na(I1\nI6\nI6\ntp265\na(I1\nI6\nI8\ntp266\nag252\na(I1\nI7\nI8\ntp267\na(I1\nI4\nI6\ntp268\na(I1\nI7\nI6\ntp269\natp270\nRp271\nsg25\ng4\n((lp272\ng256\nag261\nag257\nag262\nag258\nag263\nag264\nag265\nag260\nag267\nag259\nag268\nag269\nag266\natp273\nRp274\nsg29\n(dp275\ng256\n(i__main__\nNode\np276\n(dp277\ng8\ng4\n((lp278\n(I1\nI1\nI11\ntp279\na(I1\nI1\nI9\ntp280\na(I1\nI2\nI9\ntp281\na(I1\nI2\nI11\ntp282\na(I1\nI2\nI10\ntp283\na(I1\nI1\nI10\ntp284\natp285\nRp286\nsg15\nI6\nsg16\ng4\n((lp287\ng283\nag280\na(I1\nI3\nI9\ntp288\nag281\nag284\na(I1\nI2\nI8\ntp289\nag279\na(I1\nI3\nI11\ntp290\nag282\na(I1\nI1\nI8\ntp291\na(I1\nI3\nI10\ntp292\natp293\nRp294\nsg25\ng4\n((lp295\ng291\nag289\nag288\nag292\nag290\natp296\nRp297\nsg29\n(dp298\ng290\n(i__main__\nNode\np299\n(dp300\ng8\ng4\n((lp301\n(I1\nI4\nI9\ntp302\na(I1\nI4\nI11\ntp303\na(I1\nI4\nI10\ntp304\natp305\nRp306\nsg15\nI3\nsg16\ng4\n((lp307\n(I1\nI3\nI9\ntp308\nag303\na(I1\nI5\nI11\ntp309\na(I1\nI4\nI8\ntp310\nag302\na(I1\nI5\nI9\ntp311\na(I1\nI3\nI11\ntp312\na(I1\nI3\nI10\ntp313\nag304\natp314\nRp315\nsg25\ng4\n((lp316\ng308\nag310\nag309\nag312\nag313\nag311\natp317\nRp318\nsg29\n(dp319\nsg169\n(dp320\ng290\ng276\nssg171\nI00\nsbssg169\n(dp321\ng256\ng242\nssg171\nI00\nsbsg267\n(i__main__\nNode\np322\n(dp323\ng8\ng4\n((lp324\n(I1\nI7\nI9\ntp325\na(I1\nI6\nI9\ntp326\na(I1\nI8\nI9\ntp327\natp328\nRp329\nsg15\nI3\nsg16\ng4\n((lp330\ng326\na(I1\nI8\nI8\ntp331\na(I1\nI7\nI10\ntp332\na(I1\nI6\nI10\ntp333\nag327\nag325\na(I1\nI5\nI9\ntp334\na(I1\nI7\nI8\ntp335\na(I1\nI8\nI10\ntp336\na(I1\nI6\nI8\ntp337\natp338\nRp339\nsg25\ng4\n((lp340\ng331\nag332\nag333\nag337\nag335\nag336\nag334\natp341\nRp342\nsg29\n(dp343\nsg169\n(dp344\ng267\ng242\nssg171\nI00\nsbssg169\n(dp345\ng113\ng89\nssg171\nI00\nsbssg169\n(dp346\ng80\ng68\nssg171\nI00\nsbssg169\n(dp347\ng59\ng50\nssg171\nI00\nsbssg169\n(dp348\ng43\ng31\nssg171\nI00\nsbssg169\n(dp349\ng18\ng6\nssg171\nI00\nsbssg169\n(dp350\nsg171\nI00\nsbag124\nag146\nag276\nag221\nag299\nag31\nag89\nag68\nag322\nag50\nag242\nag174\nag196\natp351\nRp352\nsS'tree'\np353\ng4\n((lp354\ng6\natp355\nRp356\nsS'stair'\np357\n(dp358\nI1\ng4\n((lp359\ng201\natp360\nRp361\nsI2\ng4\n((lp362\ng12\natp363\nRp364\nssS'special'\np365\ng4\n((lp366\ntp367\nRp368\nssI2\n(dp369\ng3\ng4\n((lp370\n(i__main__\nNode\np371\n(dp372\ng8\ng4\n((lp373\n(I2\nI4\nI9\ntp374\na(I2\nI4\nI7\ntp375\na(I2\nI4\nI8\ntp376\na(I2\nI4\nI6\ntp377\na(I2\nI4\nI5\ntp378\na(I2\nI4\nI4\ntp379\natp380\nRp381\nsg15\nI6\nsg16\ng4\n((lp382\ng375\na(I2\nI3\nI6\ntp383\nag377\na(I2\nI3\nI7\ntp384\na(I2\nI5\nI8\ntp385\na(I2\nI5\nI6\ntp386\na(I2\nI5\nI9\ntp387\nag374\na(I2\nI5\nI4\ntp388\na(I2\nI3\nI9\ntp389\nag376\na(I2\nI5\nI5\ntp390\nag378\na(I2\nI4\nI10\ntp391\na(I2\nI3\nI4\ntp392\nag379\natp393\nRp394\nsg25\ng4\n((lp395\ng387\nag388\nag389\nag383\nag390\nag384\nag385\nag386\nag391\nag392\natp396\nRp397\nsg29\n(dp398\ng388\n(i__main__\nNode\np399\n(dp400\ng8\ng4\n((lp401\n(I2\nI7\nI6\ntp402\na(I2\nI6\nI6\ntp403\na(I2\nI6\nI5\ntp404\na(I2\nI7\nI4\ntp405\na(I2\nI6\nI4\ntp406\na(I2\nI7\nI5\ntp407\natp408\nRp409\nsg15\nI6\nsg16\ng4\n((lp410\n(I2\nI6\nI7\ntp411\na(I2\nI8\nI4\ntp412\nag402\na(I2\nI5\nI6\ntp413\nag403\na(I2\nI7\nI7\ntp414\na(I2\nI7\nI3\ntp415\nag404\na(I2\nI5\nI5\ntp416\nag405\nag406\na(I2\nI5\nI4\ntp417\na(I2\nI8\nI6\ntp418\nag407\natp419\nRp420\nsg25\ng4\n((lp421\ng411\nag414\nag417\nag412\nag416\nag415\nag413\nag418\natp422\nRp423\nsg29\n(dp424\ng411\n(i__main__\nNode\np425\n(dp426\ng8\ng4\n((lp427\n(I2\nI7\nI9\ntp428\na(I2\nI7\nI8\ntp429\na(I2\nI6\nI8\ntp430\na(I2\nI6\nI9\ntp431\natp432\nRp433\nsg15\nI4\nsg16\ng4\n((lp434\n(I2\nI7\nI10\ntp435\nag429\na(I2\nI7\nI7\ntp436\nag431\nag428\nag430\na(I2\nI6\nI7\ntp437\na(I2\nI5\nI8\ntp438\na(I2\nI8\nI9\ntp439\na(I2\nI5\nI9\ntp440\na(I2\nI6\nI10\ntp441\natp442\nRp443\nsg25\ng4\n((lp444\ng438\nag437\nag436\nag435\nag439\nag440\nag441\natp445\nRp446\nsg29\n(dp447\nsg169\n(dp448\ng411\ng399\nssg171\nI00\nsbssg169\n(dp449\ng388\ng371\nssg171\nI00\nsbssg169\n(dp450\n(I2\nI3\nI9\ntp451\n(i__main__\nNode\np452\n(dp453\ng8\ng4\n((lp454\n(I2\nI2\nI9\ntp455\na(I2\nI1\nI9\ntp456\natp457\nRp458\nsg15\nI2\nsg16\ng4\n((lp459\ng455\nag456\nag451\na(I2\nI2\nI8\ntp460\na(I2\nI2\nI10\ntp461\na(I2\nI1\nI8\ntp462\na(I2\nI1\nI10\ntp463\natp464\nRp465\nsg25\ng4\n((lp466\ng461\nag462\nag451\nag463\nag460\natp467\nRp468\nsg29\n(dp469\ng461\n(i__main__\nNode\np470\n(dp471\ng8\ng4\n((lp472\n(I2\nI2\nI11\ntp473\na(I2\nI8\nI11\ntp474\na(I2\nI1\nI11\ntp475\na(I2\nI5\nI11\ntp476\na(I2\nI11\nI11\ntp477\na(I2\nI4\nI11\ntp478\na(I2\nI3\nI11\ntp479\na(I2\nI6\nI11\ntp480\na(I2\nI7\nI11\ntp481\na(I2\nI10\nI11\ntp482\na(I2\nI9\nI11\ntp483\natp484\nRp485\nsg15\nI11\nsg16\ng4\n((lp486\n(I2\nI9\nI10\ntp487\na(I2\nI10\nI10\ntp488\nag473\nag474\nag475\nag476\nag477\na(I2\nI6\nI10\ntp489\nag478\na(I2\nI2\nI10\ntp490\na(I2\nI4\nI10\ntp491\nag479\na(I2\nI7\nI10\ntp492\nag480\nag481\na(I2\nI11\nI10\ntp493\nag482\nag483\na(I2\nI1\nI10\ntp494\natp495\nRp496\nsg25\ng4\n((lp497\ng488\nag493\nag490\nag492\nag487\nag491\nag489\nag494\natp498\nRp499\nsg29\n(dp500\ng487\n(i__main__\nNode\np501\n(dp502\ng8\ng4\n((lp503\n(I2\nI10\nI9\ntp504\na(I2\nI9\nI9\ntp505\na(I2\nI11\nI9\ntp506\natp507\nRp508\nsg15\nI3\nsg16\ng4\n((lp509\n(I2\nI9\nI10\ntp510\na(I2\nI10\nI10\ntp511\na(I2\nI9\nI8\ntp512\na(I2\nI11\nI8\ntp513\nag504\nag505\na(I2\nI10\nI8\ntp514\na(I2\nI8\nI9\ntp515\na(I2\nI11\nI10\ntp516\nag506\natp517\nRp518\nsg25\ng4\n((lp519\ng511\nag515\nag512\nag513\nag514\nag510\nag516\natp520\nRp521\nsg29\n(dp522\ng514\n(i__main__\nNode\np523\n(dp524\ng8\ng4\n((lp525\n(I2\nI9\nI6\ntp526\na(I2\nI10\nI6\ntp527\na(I2\nI9\nI7\ntp528\na(I2\nI11\nI6\ntp529\na(I2\nI11\nI7\ntp530\na(I2\nI10\nI7\ntp531\natp532\nRp533\nsg15\nI6\nsg16\ng4\n((lp534\ng526\na(I2\nI9\nI8\ntp535\nag527\na(I2\nI11\nI5\ntp536\nag528\na(I2\nI8\nI6\ntp537\na(I2\nI10\nI5\ntp538\na(I2\nI10\nI8\ntp539\nag529\na(I2\nI9\nI5\ntp540\na(I2\nI11\nI8\ntp541\nag530\nag531\natp542\nRp543\nsg25\ng4\n((lp544\ng535\nag536\nag537\nag538\nag539\nag541\nag540\natp545\nRp546\nsg29\n(dp547\ng536\n(i__main__\nNode\np548\n(dp549\ng8\ng4\n((lp550\n(I2\nI9\nI4\ntp551\na(I2\nI11\nI4\ntp552\na(I2\nI10\nI4\ntp553\natp554\nRp555\nsg15\nI3\nsg16\ng4\n((lp556\ng552\na(I2\nI11\nI3\ntp557\na(I2\nI11\nI5\ntp558\na(I2\nI8\nI4\ntp559\na(I2\nI10\nI5\ntp560\na(I2\nI10\nI3\ntp561\nag551\nag553\na(I2\nI9\nI5\ntp562\natp563\nRp564\nsg25\ng4\n((lp565\ng561\nag559\nag562\nag560\nag557\nag558\natp566\nRp567\nsg29\n(dp568\ng557\n(i__main__\nNode\np569\n(dp570\ng8\ng4\n((lp571\n(I2\nI10\nI1\ntp572\na(I2\nI10\nI2\ntp573\na(I2\nI11\nI2\ntp574\na(I2\nI11\nI1\ntp575\natp576\nRp577\nsg15\nI4\nsg16\ng4\n((lp578\n(I2\nI10\nI3\ntp579\na(I2\nI11\nI3\ntp580\nag575\nag573\nag574\nag572\na(I2\nI9\nI1\ntp581\na(I2\nI9\nI2\ntp582\natp583\nRp584\nsg25\ng4\n((lp585\ng579\nag581\nag582\nag580\natp586\nRp587\nsg29\n(dp588\nsg169\n(dp589\ng557\ng548\nssg171\nI00\nsbssg169\n(dp590\ng536\ng523\nssg171\nI00\nsbssg169\n(dp591\ng514\ng501\nssg171\nI00\nsbssg169\n(dp592\ng487\ng470\nssg171\nI00\nsbssg169\n(dp593\ng461\ng452\nssg171\nI00\nsbsg451\ng371\nssg169\n(dp594\n(I2\nI2\nI8\ntp595\n(i__main__\nNode\np596\n(dp597\ng8\ng4\n((lp598\n(I2\nI1\nI7\ntp599\na(I2\nI1\nI6\ntp600\na(I2\nI2\nI6\ntp601\na(I2\nI2\nI7\ntp602\natp603\nRp604\nsg15\nI4\nsg16\ng4\n((lp605\ng599\na(I2\nI2\nI5\ntp606\na(I2\nI3\nI6\ntp607\na(I2\nI1\nI8\ntp608\na(I2\nI1\nI5\ntp609\nag602\nag595\nag600\na(I2\nI3\nI7\ntp610\nag601\natp611\nRp612\nsg25\ng4\n((lp613\ng606\nag607\nag608\nag609\nag595\nag610\natp614\nRp615\nsg29\n(dp616\ng595\ng452\nssg169\n(dp617\n(I2\nI2\nI5\ntp618\n(i__main__\nNode\np619\n(dp620\ng8\ng4\n((lp621\n(I2\nI1\nI4\ntp622\na(I2\nI2\nI4\ntp623\natp624\nRp625\nsg15\nI2\nsg16\ng4\n((lp626\n(I2\nI1\nI3\ntp627\nag618\nag622\na(I2\nI3\nI4\ntp628\nag623\na(I2\nI2\nI3\ntp629\na(I2\nI1\nI5\ntp630\natp631\nRp632\nsg25\ng4\n((lp633\ng628\nag630\nag618\nag629\nag627\natp634\nRp635\nsg29\n(dp636\ng618\ng596\nssg169\n(dp637\n(I2\nI1\nI3\ntp638\n(i__main__\nNode\np639\n(dp640\ng8\ng4\n((lp641\n(I2\nI2\nI2\ntp642\na(I2\nI3\nI2\ntp643\na(I2\nI2\nI1\ntp644\na(I2\nI1\nI1\ntp645\na(I2\nI1\nI2\ntp646\na(I2\nI3\nI1\ntp647\natp648\nRp649\nsg15\nI6\nsg16\ng4\n((lp650\ng642\nag643\na(I2\nI2\nI3\ntp651\nag646\nag644\na(I2\nI4\nI1\ntp652\nag645\na(I2\nI4\nI2\ntp653\nag647\nag638\natp654\nRp655\nsg25\ng4\n((lp656\ng638\nag652\nag651\nag653\natp657\nRp658\nsg29\n(dp659\ng638\ng619\nssg169\n(dp660\n(I2\nI4\nI1\ntp661\n(i__main__\nNode\np662\n(dp663\ng8\ng4\n((lp664\n(I2\nI5\nI2\ntp665\na(I2\nI5\nI1\ntp666\natp667\nRp668\nsg15\nI2\nsg16\ng4\n((lp669\n(I2\nI6\nI2\ntp670\nag665\na(I2\nI4\nI2\ntp671\na(I2\nI6\nI1\ntp672\nag661\nag666\natp673\nRp674\nsg25\ng4\n((lp675\ng661\nag672\nag670\nag671\natp676\nRp677\nsg29\n(dp678\ng661\ng639\nsg672\n(i__main__\nNode\np679\n(dp680\ng8\ng4\n((lp681\n(I2\nI7\nI2\ntp682\na(I2\nI7\nI1\ntp683\na(I2\nI8\nI2\ntp684\na(I2\nI8\nI1\ntp685\natp686\nRp687\nsg15\nI4\nsg16\ng4\n((lp688\ng683\na(I2\nI6\nI2\ntp689\nag682\na(I2\nI6\nI1\ntp690\na(I2\nI7\nI3\ntp691\nag684\na(I2\nI9\nI2\ntp692\na(I2\nI9\nI1\ntp693\nag685\natp694\nRp695\nsg25\ng4\n((lp696\ng693\nag690\nag689\nag692\nag691\natp697\nRp698\nsg29\n(dp699\nsg169\n(dp700\ng672\ng662\nssg171\nI00\nsbssg169\n(dp701\nsg171\nI00\nsbssg171\nI00\nsbssg171\nI00\nsbssg171\nI00\nsbssg171\nI00\nsbssg171\nI00\nsbag596\nag569\nag425\nag548\nag470\nag619\nag662\nag399\nag452\nag679\nag639\nag523\nag501\natp702\nRp703\nsg353\ng4\n((lp704\ng662\natp705\nRp706\nsg357\n(dp707\nI1\ng4\n((lp708\ng477\natp709\nRp710\nsI2\ng4\n((lp711\ng665\natp712\nRp713\nssg365\ng4\n((lp714\ntp715\nRp716\nssI3\n(dp717\ng3\ng4\n((lp718\n(i__main__\nNode\np719\n(dp720\ng8\ng4\n((lp721\n(I3\nI1\nI9\ntp722\na(I3\nI1\nI10\ntp723\na(I3\nI1\nI11\ntp724\natp725\nRp726\nsg15\nI3\nsg16\ng4\n((lp727\n(I3\nI2\nI11\ntp728\na(I3\nI1\nI8\ntp729\nag723\nag722\nag724\na(I3\nI2\nI9\ntp730\natp731\nRp732\nsg25\ng4\n((lp733\ng728\nag729\nag730\natp734\nRp735\nsg29\n(dp736\nsg169\n(dp737\ng728\n(i__main__\nNode\np738\n(dp739\ng8\ng4\n((lp740\n(I3\nI9\nI11\ntp741\na(I3\nI8\nI11\ntp742\na(I3\nI5\nI11\ntp743\na(I3\nI6\nI11\ntp744\na(I3\nI7\nI11\ntp745\na(I3\nI3\nI11\ntp746\na(I3\nI4\nI11\ntp747\natp748\nRp749\nsg15\nI7\nsg16\ng4\n((lp750\n(I3\nI8\nI10\ntp751\na(I3\nI6\nI10\ntp752\nag742\nag743\nag744\na(I3\nI5\nI10\ntp753\na(I3\nI4\nI10\ntp754\nag746\nag747\na(I3\nI3\nI10\ntp755\nag741\na(I3\nI9\nI10\ntp756\na(I3\nI2\nI11\ntp757\nag745\na(I3\nI10\nI11\ntp758\na(I3\nI7\nI10\ntp759\natp760\nRp761\nsg25\ng4\n((lp762\ng751\nag752\nag753\nag756\nag757\nag754\nag758\nag759\nag755\natp763\nRp764\nsg29\n(dp765\ng728\ng719\nssg169\n(dp766\ng756\n(i__main__\nNode\np767\n(dp768\ng8\ng4\n((lp769\n(I3\nI9\nI5\ntp770\na(I3\nI9\nI8\ntp771\na(I3\nI7\nI9\ntp772\na(I3\nI9\nI4\ntp773\na(I3\nI3\nI9\ntp774\na(I3\nI4\nI9\ntp775\na(I3\nI9\nI3\ntp776\na(I3\nI9\nI7\ntp777\na(I3\nI9\nI9\ntp778\na(I3\nI9\nI2\ntp779\na(I3\nI9\nI6\ntp780\na(I3\nI5\nI9\ntp781\na(I3\nI8\nI9\ntp782\na(I3\nI6\nI9\ntp783\na(I3\nI9\nI1\ntp784\natp785\nRp786\nsg15\nI15\nsg16\ng4\n((lp787\n(I3\nI8\nI10\ntp788\na(I3\nI6\nI10\ntp789\na(I3\nI10\nI7\ntp790\na(I3\nI5\nI10\ntp791\na(I3\nI6\nI8\ntp792\nag781\na(I3\nI10\nI4\ntp793\nag783\na(I3\nI5\nI8\ntp794\na(I3\nI10\nI5\ntp795\na(I3\nI10\nI6\ntp796\na(I3\nI4\nI10\ntp797\na(I3\nI9\nI10\ntp798\na(I3\nI8\nI1\ntp799\nag778\na(I3\nI8\nI2\ntp800\nag771\na(I3\nI8\nI3\ntp801\na(I3\nI10\nI8\ntp802\na(I3\nI4\nI8\ntp803\na(I3\nI10\nI9\ntp804\nag774\nag775\na(I3\nI8\nI5\ntp805\na(I3\nI3\nI8\ntp806\nag777\na(I3\nI8\nI6\ntp807\nag780\na(I3\nI8\nI7\ntp808\na(I3\nI3\nI10\ntp809\nag770\na(I3\nI2\nI9\ntp810\nag772\nag773\na(I3\nI10\nI2\ntp811\na(I3\nI8\nI4\ntp812\na(I3\nI7\nI8\ntp813\nag776\na(I3\nI10\nI3\ntp814\nag779\nag782\na(I3\nI7\nI10\ntp815\nag784\na(I3\nI10\nI1\ntp816\natp817\nRp818\nsg25\ng4\n((lp819\ng788\nag789\nag790\nag791\nag792\nag793\nag795\nag794\nag796\nag798\nag799\nag800\nag801\nag802\nag803\nag804\nag816\nag805\nag806\nag807\nag808\nag809\nag811\nag812\nag813\nag814\nag797\nag815\nag810\natp820\nRp821\nsg29\n(dp822\ng799\n(i__main__\nNode\np823\n(dp824\ng8\ng4\n((lp825\n(I3\nI4\nI6\ntp826\na(I3\nI5\nI4\ntp827\na(I3\nI4\nI7\ntp828\na(I3\nI7\nI5\ntp829\na(I3\nI7\nI2\ntp830\na(I3\nI4\nI1\ntp831\na(I3\nI7\nI4\ntp832\na(I3\nI1\nI7\ntp833\na(I3\nI4\nI2\ntp834\na(I3\nI3\nI3\ntp835\na(I3\nI1\nI6\ntp836\na(I3\nI4\nI3\ntp837\na(I3\nI3\nI2\ntp838\na(I3\nI1\nI5\ntp839\na(I3\nI6\nI5\ntp840\na(I3\nI6\nI6\ntp841\na(I3\nI3\nI5\ntp842\na(I3\nI1\nI4\ntp843\na(I3\nI2\nI2\ntp844\na(I3\nI3\nI4\ntp845\na(I3\nI1\nI3\ntp846\na(I3\nI6\nI7\ntp847\na(I3\nI3\nI7\ntp848\na(I3\nI1\nI2\ntp849\na(I3\nI6\nI4\ntp850\na(I3\nI7\nI7\ntp851\na(I3\nI3\nI6\ntp852\na(I3\nI1\nI1\ntp853\na(I3\nI2\nI1\ntp854\na(I3\nI2\nI6\ntp855\na(I3\nI5\nI3\ntp856\na(I3\nI6\nI1\ntp857\na(I3\nI2\nI7\ntp858\na(I3\nI2\nI3\ntp859\na(I3\nI6\nI2\ntp860\na(I3\nI5\nI2\ntp861\na(I3\nI2\nI4\ntp862\na(I3\nI5\nI1\ntp863\na(I3\nI2\nI5\ntp864\na(I3\nI7\nI3\ntp865\na(I3\nI7\nI6\ntp866\na(I3\nI3\nI1\ntp867\na(I3\nI5\nI7\ntp868\na(I3\nI4\nI4\ntp869\na(I3\nI5\nI6\ntp870\na(I3\nI7\nI1\ntp871\na(I3\nI4\nI5\ntp872\na(I3\nI5\nI5\ntp873\na(I3\nI6\nI3\ntp874\natp875\nRp876\nsg15\nI49\nsg16\ng4\n((lp877\ng826\nag827\nag828\na(I3\nI7\nI8\ntp878\nag829\nag852\na(I3\nI6\nI8\ntp879\nag831\nag832\nag833\nag834\na(I3\nI5\nI8\ntp880\nag835\nag836\nag837\na(I3\nI4\nI8\ntp881\nag838\nag839\nag854\nag844\nag842\nag843\na(I3\nI8\nI1\ntp882\nag841\nag845\nag846\na(I3\nI8\nI2\ntp883\nag847\nag848\nag849\na(I3\nI8\nI3\ntp884\nag850\nag851\nag830\nag853\na(I3\nI8\nI4\ntp885\nag840\na(I3\nI8\nI5\ntp886\nag855\na(I3\nI3\nI8\ntp887\nag856\nag864\na(I3\nI8\nI6\ntp888\nag858\nag859\nag860\nag861\na(I3\nI8\nI7\ntp889\nag862\nag863\nag857\nag865\nag866\nag867\nag868\nag869\na(I3\nI1\nI8\ntp890\nag870\nag871\nag872\nag873\nag874\natp891\nRp892\nsg25\ng4\n((lp893\ng885\nag881\nag882\nag886\nag878\nag887\nag890\nag879\nag883\nag888\nag889\nag884\nag880\natp894\nRp895\nsg29\n(dp896\nsg169\n(dp897\ng799\ng767\nssg171\nI01\nsbsg756\ng738\nssg169\n(dp898\ng793\n(i__main__\nNode\np899\n(dp900\ng8\ng4\n((lp901\n(I3\nI11\nI11\ntp902\na(I3\nI11\nI5\ntp903\na(I3\nI11\nI10\ntp904\na(I3\nI11\nI1\ntp905\na(I3\nI11\nI4\ntp906\na(I3\nI11\nI9\ntp907\na(I3\nI11\nI7\ntp908\na(I3\nI11\nI3\ntp909\na(I3\nI11\nI8\ntp910\na(I3\nI11\nI6\ntp911\na(I3\nI11\nI2\ntp912\natp913\nRp914\nsg15\nI11\nsg16\ng4\n((lp915\ng902\na(I3\nI10\nI8\ntp916\na(I3\nI10\nI5\ntp917\na(I3\nI10\nI6\ntp918\nag903\nag904\nag905\na(I3\nI10\nI9\ntp919\nag906\na(I3\nI10\nI7\ntp920\na(I3\nI10\nI3\ntp921\nag907\na(I3\nI10\nI1\ntp922\nag908\na(I3\nI10\nI11\ntp923\nag909\nag910\na(I3\nI10\nI4\ntp924\nag911\na(I3\nI10\nI2\ntp925\nag912\natp926\nRp927\nsg25\ng4\n((lp928\ng916\nag918\nag919\nag925\nag920\nag921\nag924\nag923\nag917\nag922\natp929\nRp930\nsg29\n(dp931\ng793\ng767\nssg169\n(dp932\nsg171\nI00\nsbssg171\nI00\nsbssg171\nI00\nsbssg171\nI00\nsbag738\nag899\nag823\nag767\natp933\nRp934\nsg353\ng4\n((lp935\ng899\natp936\nRp937\nsg357\n(dp938\nI1\ng4\n((lp939\ntp940\nRp941\nsI2\ng4\n((lp942\ng902\natp943\nRp944\nssg365\ng4\n((lp945\n(I3\nI4\nI6\ntp946\na(I3\nI5\nI4\ntp947\na(I3\nI4\nI7\ntp948\na(I3\nI3\nI1\ntp949\na(I3\nI3\nI6\ntp950\na(I3\nI4\nI1\ntp951\na(I3\nI7\nI4\ntp952\na(I3\nI1\nI7\ntp953\na(I3\nI4\nI2\ntp954\na(I3\nI3\nI3\ntp955\na(I3\nI1\nI6\ntp956\na(I3\nI4\nI3\ntp957\na(I3\nI3\nI2\ntp958\na(I3\nI1\nI5\ntp959\na(I3\nI2\nI1\ntp960\na(I3\nI2\nI2\ntp961\na(I3\nI3\nI5\ntp962\na(I3\nI1\nI4\ntp963\na(I3\nI6\nI6\ntp964\na(I3\nI3\nI4\ntp965\na(I3\nI1\nI3\ntp966\na(I3\nI2\nI3\ntp967\na(I3\nI3\nI7\ntp968\na(I3\nI1\nI2\ntp969\na(I3\nI6\nI4\ntp970\na(I3\nI7\nI7\ntp971\na(I3\nI7\nI2\ntp972\na(I3\nI1\nI1\ntp973\na(I3\nI6\nI5\ntp974\na(I3\nI2\nI6\ntp975\na(I3\nI5\nI3\ntp976\na(I3\nI2\nI5\ntp977\na(I3\nI2\nI7\ntp978\na(I3\nI6\nI7\ntp979\na(I3\nI6\nI2\ntp980\na(I3\nI5\nI2\ntp981\na(I3\nI2\nI4\ntp982\na(I3\nI5\nI1\ntp983\na(I3\nI6\nI1\ntp984\na(I3\nI7\nI3\ntp985\na(I3\nI7\nI6\ntp986\na(I3\nI7\nI5\ntp987\na(I3\nI5\nI7\ntp988\na(I3\nI4\nI4\ntp989\na(I3\nI5\nI6\ntp990\na(I3\nI7\nI1\ntp991\na(I3\nI4\nI5\ntp992\na(I3\nI5\nI5\ntp993\na(I3\nI6\nI3\ntp994\natp995\nRp996\nssI4\n(dp997\ng3\ng4\n((lp998\n(i__main__\nNode\np999\n(dp1000\ng8\ng4\n((lp1001\n(I4\nI2\nI8\ntp1002\na(I4\nI1\nI8\ntp1003\natp1004\nRp1005\nsg15\nI2\nsg16\ng4\n((lp1006\n(I4\nI2\nI7\ntp1007\na(I4\nI3\nI8\ntp1008\na(I4\nI2\nI9\ntp1009\nag1003\na(I4\nI1\nI7\ntp1010\nag1002\na(I4\nI1\nI9\ntp1011\natp1012\nRp1013\nsg25\ng4\n((lp1014\ng1007\nag1008\nag1011\nag1009\nag1010\natp1015\nRp1016\nsg29\n(dp1017\nsg169\n(dp1018\n(I4\nI2\nI9\ntp1019\n(i__main__\nNode\np1020\n(dp1021\ng8\ng4\n((lp1022\n(I4\nI1\nI10\ntp1023\na(I4\nI2\nI10\ntp1024\na(I4\nI2\nI11\ntp1025\na(I4\nI1\nI11\ntp1026\natp1027\nRp1028\nsg15\nI4\nsg16\ng4\n((lp1029\ng1026\nag1019\na(I4\nI3\nI10\ntp1030\na(I4\nI3\nI11\ntp1031\na(I4\nI1\nI9\ntp1032\nag1025\nag1023\nag1024\natp1033\nRp1034\nsg25\ng4\n((lp1035\ng1031\nag1030\nag1019\nag1032\natp1036\nRp1037\nsg29\n(dp1038\ng1031\n(i__main__\nNode\np1039\n(dp1040\ng8\ng4\n((lp1041\n(I4\nI4\nI6\ntp1042\na(I4\nI4\nI1\ntp1043\na(I4\nI4\nI10\ntp1044\na(I4\nI4\nI5\ntp1045\na(I4\nI4\nI9\ntp1046\na(I4\nI4\nI4\ntp1047\na(I4\nI4\nI8\ntp1048\na(I4\nI4\nI3\ntp1049\na(I4\nI4\nI7\ntp1050\na(I4\nI4\nI2\ntp1051\na(I4\nI4\nI11\ntp1052\natp1053\nRp1054\nsg15\nI11\nsg16\ng4\n((lp1055\n(I4\nI5\nI2\ntp1056\nag1043\nag1044\na(I4\nI3\nI10\ntp1057\na(I4\nI3\nI5\ntp1058\nag1046\na(I4\nI3\nI11\ntp1059\na(I4\nI3\nI2\ntp1060\nag1048\na(I4\nI3\nI8\ntp1061\na(I4\nI3\nI3\ntp1062\nag1050\na(I4\nI5\nI6\ntp1063\nag1042\na(I4\nI5\nI7\ntp1064\nag1045\na(I4\nI5\nI8\ntp1065\na(I4\nI5\nI3\ntp1066\na(I4\nI3\nI1\ntp1067\nag1047\na(I4\nI5\nI9\ntp1068\na(I4\nI3\nI6\ntp1069\nag1049\na(I4\nI5\nI10\ntp1070\na(I4\nI5\nI1\ntp1071\na(I4\nI5\nI11\ntp1072\nag1051\nag1052\na(I4\nI5\nI5\ntp1073\natp1074\nRp1075\nsg25\ng4\n((lp1076\ng1056\nag1064\nag1057\nag1058\nag1065\nag1066\nag1062\nag1059\nag1060\nag1068\nag1069\nag1067\nag1061\nag1073\nag1070\nag1071\nag1063\nag1072\natp1077\nRp1078\nsg29\n(dp1079\n(I4\nI5\nI2\ntp1080\n(i__main__\nNode\np1081\n(dp1082\ng8\ng4\n((lp1083\n(I4\nI6\nI3\ntp1084\na(I4\nI6\nI2\ntp1085\na(I4\nI7\nI1\ntp1086\na(I4\nI6\nI1\ntp1087\na(I4\nI7\nI2\ntp1088\na(I4\nI7\nI3\ntp1089\natp1090\nRp1091\nsg15\nI6\nsg16\ng4\n((lp1092\ng1084\nag1080\nag1085\na(I4\nI8\nI3\ntp1093\nag1086\nag1088\na(I4\nI8\nI2\ntp1094\nag1087\na(I4\nI6\nI4\ntp1095\na(I4\nI5\nI3\ntp1096\na(I4\nI5\nI1\ntp1097\na(I4\nI8\nI1\ntp1098\nag1089\natp1099\nRp1100\nsg25\ng4\n((lp1101\ng1080\nag1096\nag1093\nag1094\nag1095\nag1098\nag1097\natp1102\nRp1103\nsg29\n(dp1104\ng1093\n(i__main__\nNode\np1105\n(dp1106\ng8\ng4\n((lp1107\n(I4\nI9\nI3\ntp1108\na(I4\nI9\nI2\ntp1109\na(I4\nI9\nI1\ntp1110\natp1111\nRp1112\nsg15\nI3\nsg16\ng4\n((lp1113\n(I4\nI10\nI2\ntp1114\na(I4\nI10\nI1\ntp1115\na(I4\nI8\nI3\ntp1116\nag1110\na(I4\nI8\nI2\ntp1117\nag1109\na(I4\nI8\nI1\ntp1118\na(I4\nI10\nI3\ntp1119\nag1108\natp1120\nRp1121\nsg25\ng4\n((lp1122\ng1115\nag1116\nag1117\nag1119\nag1118\nag1114\natp1123\nRp1124\nsg29\n(dp1125\n(I4\nI10\nI2\ntp1126\n(i__main__\nNode\np1127\n(dp1128\ng8\ng4\n((lp1129\n(I4\nI11\nI1\ntp1130\na(I4\nI11\nI3\ntp1131\na(I4\nI11\nI2\ntp1132\natp1133\nRp1134\nsg15\nI3\nsg16\ng4\n((lp1135\ng1126\na(I4\nI10\nI3\ntp1136\na(I4\nI10\nI1\ntp1137\nag1132\na(I4\nI11\nI4\ntp1138\nag1130\nag1131\natp1139\nRp1140\nsg25\ng4\n((lp1141\ng1138\nag1126\nag1136\nag1137\natp1142\nRp1143\nsg29\n(dp1144\ng1138\n(i__main__\nNode\np1145\n(dp1146\ng8\ng4\n((lp1147\n(I4\nI10\nI5\ntp1148\na(I4\nI11\nI5\ntp1149\natp1150\nRp1151\nsg15\nI2\nsg16\ng4\n((lp1152\n(I4\nI9\nI5\ntp1153\na(I4\nI11\nI4\ntp1154\nag1148\na(I4\nI10\nI6\ntp1155\na(I4\nI11\nI6\ntp1156\nag1149\natp1157\nRp1158\nsg25\ng4\n((lp1159\ng1154\nag1153\nag1156\nag1155\natp1160\nRp1161\nsg29\n(dp1162\ng1155\n(i__main__\nNode\np1163\n(dp1164\ng8\ng4\n((lp1165\n(I4\nI11\nI9\ntp1166\na(I4\nI10\nI9\ntp1167\na(I4\nI11\nI7\ntp1168\na(I4\nI10\nI8\ntp1169\na(I4\nI10\nI7\ntp1170\na(I4\nI11\nI8\ntp1171\natp1172\nRp1173\nsg15\nI6\nsg16\ng4\n((lp1174\n(I4\nI10\nI6\ntp1175\nag1166\na(I4\nI11\nI10\ntp1176\na(I4\nI11\nI6\ntp1177\na(I4\nI9\nI8\ntp1178\nag1167\nag1168\na(I4\nI10\nI10\ntp1179\nag1169\nag1170\na(I4\nI9\nI7\ntp1180\nag1171\na(I4\nI9\nI9\ntp1181\natp1182\nRp1183\nsg25\ng4\n((lp1184\ng1179\nag1181\nag1177\nag1176\nag1178\nag1180\nag1175\natp1185\nRp1186\nsg29\n(dp1187\ng1179\n(i__main__\nNode\np1188\n(dp1189\ng8\ng4\n((lp1190\n(I4\nI10\nI11\ntp1191\na(I4\nI11\nI11\ntp1192\natp1193\nRp1194\nsg15\nI2\nsg16\ng4\n((lp1195\n(I4\nI10\nI10\ntp1196\nag1191\nag1192\na(I4\nI11\nI10\ntp1197\na(I4\nI9\nI11\ntp1198\natp1199\nRp1200\nsg25\ng4\n((lp1201\ng1196\nag1197\nag1198\natp1202\nRp1203\nsg29\n(dp1204\ng1198\n(i__main__\nNode\np1205\n(dp1206\ng8\ng4\n((lp1207\n(I4\nI8\nI9\ntp1208\na(I4\nI8\nI7\ntp1209\na(I4\nI8\nI8\ntp1210\na(I4\nI8\nI6\ntp1211\na(I4\nI8\nI11\ntp1212\na(I4\nI8\nI5\ntp1213\na(I4\nI8\nI10\ntp1214\natp1215\nRp1216\nsg15\nI7\nsg16\ng4\n((lp1217\n(I4\nI7\nI7\ntp1218\na(I4\nI9\nI8\ntp1219\na(I4\nI9\nI5\ntp1220\nag1212\na(I4\nI7\nI5\ntp1221\na(I4\nI7\nI6\ntp1222\nag1214\nag1208\na(I4\nI9\nI11\ntp1223\nag1209\nag1210\na(I4\nI7\nI10\ntp1224\nag1211\na(I4\nI7\nI11\ntp1225\na(I4\nI9\nI9\ntp1226\nag1213\na(I4\nI7\nI8\ntp1227\na(I4\nI9\nI7\ntp1228\na(I4\nI7\nI9\ntp1229\natp1230\nRp1231\nsg25\ng4\n((lp1232\ng1229\nag1223\nag1225\nag1224\nag1219\nag1222\nag1220\nag1221\nag1218\nag1227\nag1228\nag1226\natp1233\nRp1234\nsg29\n(dp1235\nsg169\n(dp1236\ng1198\ng1188\nssg171\nI00\nsbssg169\n(dp1237\ng1179\ng1163\nssg171\nI00\nsbssg169\n(dp1238\ng1155\ng1145\nssg171\nI00\nsbssg169\n(dp1239\ng1138\ng1127\nssg171\nI00\nsbssg169\n(dp1240\ng1126\ng1105\nssg171\nI00\nsbssg169\n(dp1241\ng1093\ng1081\nssg171\nI00\nsbsg1095\n(i__main__\nNode\np1242\n(dp1243\ng8\ng4\n((lp1244\n(I4\nI6\nI6\ntp1245\na(I4\nI6\nI9\ntp1246\na(I4\nI6\nI5\ntp1247\na(I4\nI6\nI8\ntp1248\na(I4\nI6\nI11\ntp1249\na(I4\nI6\nI7\ntp1250\na(I4\nI6\nI10\ntp1251\natp1252\nRp1253\nsg15\nI7\nsg16\ng4\n((lp1254\ng1245\na(I4\nI7\nI7\ntp1255\na(I4\nI7\nI8\ntp1256\nag1246\na(I4\nI7\nI6\ntp1257\nag1248\na(I4\nI5\nI7\ntp1258\na(I4\nI5\nI5\ntp1259\nag1249\na(I4\nI5\nI6\ntp1260\nag1251\na(I4\nI7\nI5\ntp1261\na(I4\nI7\nI11\ntp1262\na(I4\nI5\nI8\ntp1263\nag1247\na(I4\nI5\nI9\ntp1264\na(I4\nI6\nI4\ntp1265\na(I4\nI5\nI10\ntp1266\na(I4\nI5\nI11\ntp1267\nag1250\na(I4\nI7\nI10\ntp1268\na(I4\nI7\nI9\ntp1269\natp1270\nRp1271\nsg25\ng4\n((lp1272\ng1269\nag1261\nag1264\nag1263\nag1266\nag1257\nag1262\nag1258\nag1265\nag1256\nag1259\nag1267\nag1260\nag1268\nag1255\natp1273\nRp1274\nsg29\n(dp1275\nsg169\n(dp1276\ng1095\ng1081\nssg171\nI00\nsbssg169\n(dp1277\ng1080\ng1039\nssg171\nI00\nsbsg1067\n(i__main__\nNode\np1278\n(dp1279\ng8\ng4\n((lp1280\n(I4\nI1\nI3\ntp1281\na(I4\nI2\nI3\ntp1282\na(I4\nI2\nI1\ntp1283\na(I4\nI2\nI2\ntp1284\na(I4\nI1\nI1\ntp1285\na(I4\nI1\nI2\ntp1286\natp1287\nRp1288\nsg15\nI6\nsg16\ng4\n((lp1289\ng1284\nag1282\na(I4\nI3\nI1\ntp1290\nag1283\na(I4\nI1\nI4\ntp1291\nag1281\nag1285\na(I4\nI2\nI4\ntp1292\nag1286\na(I4\nI3\nI2\ntp1293\na(I4\nI3\nI3\ntp1294\natp1295\nRp1296\nsg25\ng4\n((lp1297\ng1292\nag1291\nag1290\nag1294\nag1293\natp1298\nRp1299\nsg29\n(dp1300\nsg169\n(dp1301\ng1067\ng1039\nssg171\nI00\nsbsg1058\n(i__main__\nNode\np1302\n(dp1303\ng8\ng4\n((lp1304\n(I4\nI1\nI6\ntp1305\na(I4\nI1\nI5\ntp1306\na(I4\nI2\nI5\ntp1307\na(I4\nI2\nI6\ntp1308\natp1309\nRp1310\nsg15\nI4\nsg16\ng4\n((lp1311\ng1305\na(I4\nI2\nI7\ntp1312\nag1308\na(I4\nI1\nI7\ntp1313\na(I4\nI3\nI5\ntp1314\na(I4\nI3\nI6\ntp1315\nag1307\na(I4\nI2\nI4\ntp1316\nag1306\na(I4\nI1\nI4\ntp1317\natp1318\nRp1319\nsg25\ng4\n((lp1320\ng1312\nag1314\nag1313\nag1315\nag1317\nag1316\natp1321\nRp1322\nsg29\n(dp1323\nsg169\n(dp1324\ng1058\ng1039\nssg171\nI00\nsbssg169\n(dp1325\ng1031\ng1020\nssg171\nI00\nsbsg1019\ng999\nssg169\n(dp1326\nsg171\nI00\nsbssg171\nI00\nsbag1205\nag1081\nag1163\nag1105\nag1145\nag1020\nag1242\nag1302\nag1127\nag1278\nag1188\nag1039\natp1327\nRp1328\nsg353\ng4\n((lp1329\ng1020\natp1330\nRp1331\nsg357\n(dp1332\nI1\ng4\n((lp1333\ng1249\natp1334\nRp1335\nsI2\ng4\n((lp1336\ng1026\natp1337\nRp1338\nssg365\ng4\n((lp1339\ntp1340\nRp1341\nssI5\n(dp1342\ng3\ng4\n((lp1343\n(i__main__\nNode\np1344\n(dp1345\ng8\ng4\n((lp1346\n(I5\nI11\nI4\ntp1347\na(I5\nI11\nI3\ntp1348\na(I5\nI10\nI3\ntp1349\na(I5\nI10\nI4\ntp1350\natp1351\nRp1352\nsg15\nI4\nsg16\ng4\n((lp1353\ng1349\na(I5\nI10\nI5\ntp1354\nag1348\na(I5\nI11\nI2\ntp1355\na(I5\nI11\nI5\ntp1356\na(I5\nI9\nI4\ntp1357\na(I5\nI10\nI2\ntp1358\nag1347\nag1350\natp1359\nRp1360\nsg25\ng4\n((lp1361\ng1355\nag1356\nag1358\nag1354\nag1357\natp1362\nRp1363\nsg29\n(dp1364\ng1355\n(i__main__\nNode\np1365\n(dp1366\ng8\ng4\n((lp1367\n(I5\nI11\nI1\ntp1368\na(I5\nI10\nI1\ntp1369\natp1370\nRp1371\nsg15\nI2\nsg16\ng4\n((lp1372\ng1368\na(I5\nI11\nI2\ntp1373\na(I5\nI10\nI2\ntp1374\nag1369\na(I5\nI9\nI1\ntp1375\natp1376\nRp1377\nsg25\ng4\n((lp1378\ng1373\nag1374\nag1375\natp1379\nRp1380\nsg29\n(dp1381\nsg169\n(dp1382\ng1355\ng1344\nssg171\nI00\nsbssg169\n(dp1383\n(I5\nI11\nI5\ntp1384\n(i__main__\nNode\np1385\n(dp1386\ng8\ng4\n((lp1387\n(I5\nI11\nI7\ntp1388\na(I5\nI11\nI8\ntp1389\na(I5\nI11\nI6\ntp1390\na(I5\nI10\nI8\ntp1391\na(I5\nI10\nI6\ntp1392\na(I5\nI10\nI7\ntp1393\natp1394\nRp1395\nsg15\nI6\nsg16\ng4\n((lp1396\n(I5\nI11\nI9\ntp1397\na(I5\nI9\nI8\ntp1398\na(I5\nI9\nI7\ntp1399\nag1388\nag1389\nag1390\nag1391\na(I5\nI10\nI5\ntp1400\nag1384\na(I5\nI10\nI9\ntp1401\nag1392\na(I5\nI9\nI6\ntp1402\nag1393\natp1403\nRp1404\nsg25\ng4\n((lp1405\ng1397\nag1400\nag1384\nag1401\nag1399\nag1402\nag1398\natp1406\nRp1407\nsg29\n(dp1408\ng1384\ng1344\nssg169\n(dp1409\n(I5\nI9\nI6\ntp1410\n(i__main__\nNode\np1411\n(dp1412\ng8\ng4\n((lp1413\n(I5\nI7\nI6\ntp1414\na(I5\nI8\nI6\ntp1415\na(I5\nI8\nI7\ntp1416\na(I5\nI7\nI8\ntp1417\na(I5\nI7\nI7\ntp1418\na(I5\nI8\nI8\ntp1419\natp1420\nRp1421\nsg15\nI6\nsg16\ng4\n((lp1422\n(I5\nI7\nI9\ntp1423\nag1417\na(I5\nI9\nI7\ntp1424\nag1418\nag1419\na(I5\nI8\nI9\ntp1425\nag1410\nag1414\na(I5\nI6\nI7\ntp1426\na(I5\nI7\nI5\ntp1427\na(I5\nI6\nI6\ntp1428\nag1415\nag1416\na(I5\nI9\nI8\ntp1429\na(I5\nI6\nI8\ntp1430\na(I5\nI8\nI5\ntp1431\natp1432\nRp1433\nsg25\ng4\n((lp1434\ng1426\nag1427\nag1430\nag1423\nag1425\nag1429\nag1424\nag1410\nag1428\nag1431\natp1435\nRp1436\nsg29\n(dp1437\ng1410\ng1385\nsg1431\n(i__main__\nNode\np1438\n(dp1439\ng8\ng4\n((lp1440\n(I5\nI8\nI4\ntp1441\na(I5\nI5\nI4\ntp1442\na(I5\nI6\nI4\ntp1443\na(I5\nI7\nI4\ntp1444\natp1445\nRp1446\nsg15\nI4\nsg16\ng4\n((lp1447\n(I5\nI5\nI3\ntp1448\na(I5\nI7\nI5\ntp1449\na(I5\nI5\nI5\ntp1450\na(I5\nI8\nI3\ntp1451\nag1443\nag1444\na(I5\nI9\nI4\ntp1452\nag1442\na(I5\nI7\nI3\ntp1453\nag1441\na(I5\nI4\nI4\ntp1454\na(I5\nI8\nI5\ntp1455\natp1456\nRp1457\nsg25\ng4\n((lp1458\ng1448\nag1449\nag1451\nag1450\nag1452\nag1453\nag1454\nag1455\natp1459\nRp1460\nsg29\n(dp1461\ng1448\n(i__main__\nNode\np1462\n(dp1463\ng8\ng4\n((lp1464\n(I5\nI5\nI1\ntp1465\na(I5\nI5\nI2\ntp1466\natp1467\nRp1468\nsg15\nI2\nsg16\ng4\n((lp1469\n(I5\nI5\nI3\ntp1470\na(I5\nI6\nI2\ntp1471\nag1465\nag1466\na(I5\nI6\nI1\ntp1472\na(I5\nI4\nI1\ntp1473\natp1474\nRp1475\nsg25\ng4\n((lp1476\ng1470\nag1471\nag1472\nag1473\natp1477\nRp1478\nsg29\n(dp1479\nsg169\n(dp1480\ng1448\ng1438\nssg171\nI00\nsbsg1454\n(i__main__\nNode\np1481\n(dp1482\ng8\ng4\n((lp1483\n(I5\nI3\nI4\ntp1484\na(I5\nI2\nI4\ntp1485\na(I5\nI3\nI3\ntp1486\na(I5\nI2\nI3\ntp1487\na(I5\nI1\nI4\ntp1488\na(I5\nI1\nI3\ntp1489\natp1490\nRp1491\nsg15\nI6\nsg16\ng4\n((lp1492\ng1487\na(I5\nI4\nI4\ntp1493\nag1486\na(I5\nI1\nI2\ntp1494\nag1485\nag1484\na(I5\nI1\nI5\ntp1495\na(I5\nI3\nI2\ntp1496\nag1488\nag1489\na(I5\nI3\nI5\ntp1497\na(I5\nI2\nI2\ntp1498\natp1499\nRp1500\nsg25\ng4\n((lp1501\ng1494\nag1493\nag1495\nag1498\nag1496\nag1497\natp1502\nRp1503\nsg29\n(dp1504\ng1498\n(i__main__\nNode\np1505\n(dp1506\ng8\ng4\n((lp1507\n(I5\nI3\nI1\ntp1508\na(I5\nI2\nI1\ntp1509\na(I5\nI1\nI1\ntp1510\natp1511\nRp1512\nsg15\nI3\nsg16\ng4\n((lp1513\ng1508\na(I5\nI1\nI2\ntp1514\nag1509\na(I5\nI4\nI1\ntp1515\na(I5\nI3\nI2\ntp1516\na(I5\nI2\nI2\ntp1517\nag1510\natp1518\nRp1519\nsg25\ng4\n((lp1520\ng1516\nag1514\nag1517\nag1515\natp1521\nRp1522\nsg29\n(dp1523\nsg169\n(dp1524\ng1498\ng1481\nssg171\nI00\nsbssg169\n(dp1525\ng1454\ng1438\nssg171\nI00\nsbsg1451\n(i__main__\nNode\np1526\n(dp1527\ng8\ng4\n((lp1528\n(I5\nI8\nI1\ntp1529\na(I5\nI7\nI1\ntp1530\na(I5\nI7\nI2\ntp1531\na(I5\nI8\nI2\ntp1532\natp1533\nRp1534\nsg15\nI4\nsg16\ng4\n((lp1535\n(I5\nI6\nI2\ntp1536\nag1530\na(I5\nI9\nI1\ntp1537\nag1532\na(I5\nI8\nI3\ntp1538\na(I5\nI7\nI3\ntp1539\na(I5\nI6\nI1\ntp1540\nag1529\nag1531\natp1541\nRp1542\nsg25\ng4\n((lp1543\ng1536\nag1540\nag1539\nag1537\nag1538\natp1544\nRp1545\nsg29\n(dp1546\nsg169\n(dp1547\ng1451\ng1438\nssg171\nI00\nsbssg169\n(dp1548\ng1431\ng1411\nssg171\nI00\nsbssg169\n(dp1549\n(I5\nI8\nI9\ntp1550\n(i__main__\nNode\np1551\n(dp1552\ng8\ng4\n((lp1553\n(I5\nI7\nI10\ntp1554\na(I5\nI8\nI10\ntp1555\na(I5\nI8\nI11\ntp1556\na(I5\nI6\nI10\ntp1557\na(I5\nI7\nI11\ntp1558\na(I5\nI6\nI11\ntp1559\natp1560\nRp1561\nsg15\nI6\nsg16\ng4\n((lp1562\ng1550\nag1554\na(I5\nI7\nI9\ntp1563\nag1555\na(I5\nI5\nI11\ntp1564\na(I5\nI9\nI10\ntp1565\nag1556\nag1557\na(I5\nI5\nI10\ntp1566\na(I5\nI9\nI11\ntp1567\nag1558\nag1559\natp1568\nRp1569\nsg25\ng4\n((lp1570\ng1550\nag1563\nag1565\nag1564\nag1567\nag1566\natp1571\nRp1572\nsg29\n(dp1573\ng1550\ng1411\nsg1567\n(i__main__\nNode\np1574\n(dp1575\ng8\ng4\n((lp1576\n(I5\nI11\nI10\ntp1577\na(I5\nI11\nI11\ntp1578\na(I5\nI10\nI11\ntp1579\na(I5\nI10\nI10\ntp1580\natp1581\nRp1582\nsg15\nI4\nsg16\ng4\n((lp1583\n(I5\nI11\nI9\ntp1584\nag1579\na(I5\nI9\nI11\ntp1585\nag1578\na(I5\nI9\nI10\ntp1586\na(I5\nI10\nI9\ntp1587\nag1577\nag1580\natp1588\nRp1589\nsg25\ng4\n((lp1590\ng1584\nag1586\nag1585\nag1587\natp1591\nRp1592\nsg29\n(dp1593\nsg169\n(dp1594\ng1567\ng1551\nssg171\nI00\nsbsg1566\n(i__main__\nNode\np1595\n(dp1596\ng8\ng4\n((lp1597\n(I5\nI3\nI10\ntp1598\na(I5\nI3\nI11\ntp1599\na(I5\nI4\nI10\ntp1600\na(I5\nI4\nI11\ntp1601\natp1602\nRp1603\nsg15\nI4\nsg16\ng4\n((lp1604\n(I5\nI3\nI9\ntp1605\nag1601\nag1599\nag1598\na(I5\nI2\nI10\ntp1606\na(I5\nI5\nI11\ntp1607\na(I5\nI2\nI11\ntp1608\nag1600\na(I5\nI5\nI10\ntp1609\natp1610\nRp1611\nsg25\ng4\n((lp1612\ng1607\nag1605\nag1608\nag1606\nag1609\natp1613\nRp1614\nsg29\n(dp1615\ng1605\n(i__main__\nNode\np1616\n(dp1617\ng8\ng4\n((lp1618\n(I5\nI3\nI6\ntp1619\na(I5\nI3\nI7\ntp1620\na(I5\nI3\nI8\ntp1621\natp1622\nRp1623\nsg15\nI3\nsg16\ng4\n((lp1624\n(I5\nI2\nI6\ntp1625\na(I5\nI4\nI7\ntp1626\na(I5\nI2\nI8\ntp1627\na(I5\nI2\nI7\ntp1628\na(I5\nI4\nI6\ntp1629\nag1620\na(I5\nI4\nI8\ntp1630\nag1619\na(I5\nI3\nI9\ntp1631\na(I5\nI3\nI5\ntp1632\nag1621\natp1633\nRp1634\nsg25\ng4\n((lp1635\ng1625\nag1627\nag1628\nag1629\nag1631\nag1626\nag1630\nag1632\natp1636\nRp1637\nsg29\n(dp1638\ng1630\n(i__main__\nNode\np1639\n(dp1640\ng8\ng4\n((lp1641\n(I5\nI5\nI8\ntp1642\na(I5\nI5\nI6\ntp1643\na(I5\nI5\nI7\ntp1644\natp1645\nRp1646\nsg15\nI3\nsg16\ng4\n((lp1647\ng1643\na(I5\nI6\nI6\ntp1648\na(I5\nI6\nI8\ntp1649\na(I5\nI4\nI6\ntp1650\nag1642\na(I5\nI6\nI7\ntp1651\na(I5\nI5\nI5\ntp1652\na(I5\nI4\nI8\ntp1653\nag1644\na(I5\nI4\nI7\ntp1654\natp1655\nRp1656\nsg25\ng4\n((lp1657\ng1651\nag1649\nag1650\nag1652\nag1653\nag1648\nag1654\natp1658\nRp1659\nsg29\n(dp1660\nsg169\n(dp1661\ng1630\ng1616\nssg171\nI00\nsbssg169\n(dp1662\ng1605\ng1595\nssg171\nI00\nsbsg1606\n(i__main__\nNode\np1663\n(dp1664\ng8\ng4\n((lp1665\n(I5\nI1\nI10\ntp1666\na(I5\nI1\nI11\ntp1667\natp1668\nRp1669\nsg15\nI2\nsg16\ng4\n((lp1670\n(I5\nI2\nI10\ntp1671\na(I5\nI2\nI11\ntp1672\nag1666\nag1667\na(I5\nI1\nI9\ntp1673\natp1674\nRp1675\nsg25\ng4\n((lp1676\ng1672\nag1671\nag1673\natp1677\nRp1678\nsg29\n(dp1679\ng1673\n(i__main__\nNode\np1680\n(dp1681\ng8\ng4\n((lp1682\n(I5\nI1\nI7\ntp1683\na(I5\nI1\nI8\ntp1684\na(I5\nI1\nI6\ntp1685\natp1686\nRp1687\nsg15\nI3\nsg16\ng4\n((lp1688\ng1683\na(I5\nI2\nI6\ntp1689\na(I5\nI2\nI8\ntp1690\na(I5\nI1\nI9\ntp1691\nag1685\na(I5\nI2\nI7\ntp1692\nag1684\na(I5\nI1\nI5\ntp1693\natp1694\nRp1695\nsg25\ng4\n((lp1696\ng1689\nag1693\nag1691\nag1690\nag1692\natp1697\nRp1698\nsg29\n(dp1699\nsg169\n(dp1700\ng1673\ng1663\nssg171\nI00\nsbssg169\n(dp1701\ng1606\ng1595\nssg171\nI00\nsbssg169\n(dp1702\ng1566\ng1551\nssg171\nI00\nsbssg169\n(dp1703\nsg171\nI00\nsbssg171\nI00\nsbssg171\nI00\nsbssg171\nI00\nsbag1411\nag1385\nag1595\nag1462\nag1365\nag1505\nag1616\nag1574\nag1639\nag1481\nag1663\nag1551\nag1438\nag1526\nag1680\natp1704\nRp1705\nsg353\ng4\n((lp1706\ng1551\natp1707\nRp1708\nsg357\n(dp1709\nI1\ng4\n((lp1710\ng1578\natp1711\nRp1712\nsI2\ng4\n((lp1713\ng1559\natp1714\nRp1715\nssg365\ng4\n((lp1716\ntp1717\nRp1718\nssI6\n(dp1719\ng3\ng4\n((lp1720\n(i__main__\nNode\np1721\n(dp1722\ng8\ng4\n((lp1723\n(I6\nI11\nI9\ntp1724\na(I6\nI8\nI9\ntp1725\na(I6\nI10\nI9\ntp1726\na(I6\nI7\nI9\ntp1727\na(I6\nI9\nI9\ntp1728\natp1729\nRp1730\nsg15\nI5\nsg16\ng4\n((lp1731\n(I6\nI6\nI9\ntp1732\na(I6\nI9\nI8\ntp1733\na(I6\nI10\nI10\ntp1734\nag1725\nag1726\na(I6\nI7\nI8\ntp1735\na(I6\nI9\nI10\ntp1736\nag1724\na(I6\nI10\nI8\ntp1737\nag1727\na(I6\nI11\nI10\ntp1738\na(I6\nI8\nI10\ntp1739\na(I6\nI7\nI10\ntp1740\na(I6\nI11\nI8\ntp1741\nag1728\natp1742\nRp1743\nsg25\ng4\n((lp1744\ng1732\nag1734\nag1741\nag1735\nag1738\nag1737\nag1733\nag1740\nag1736\nag1739\natp1745\nRp1746\nsg29\n(dp1747\n(I6\nI6\nI9\ntp1748\n(i__main__\nNode\np1749\n(dp1750\ng8\ng4\n((lp1751\n(I6\nI3\nI9\ntp1752\na(I6\nI5\nI9\ntp1753\na(I6\nI2\nI9\ntp1754\na(I6\nI4\nI9\ntp1755\na(I6\nI1\nI9\ntp1756\natp1757\nRp1758\nsg15\nI5\nsg16\ng4\n((lp1759\n(I6\nI3\nI10\ntp1760\na(I6\nI1\nI8\ntp1761\na(I6\nI4\nI10\ntp1762\nag1756\na(I6\nI5\nI10\ntp1763\na(I6\nI5\nI8\ntp1764\nag1748\nag1753\na(I6\nI1\nI10\ntp1765\na(I6\nI2\nI10\ntp1766\nag1755\na(I6\nI3\nI8\ntp1767\nag1754\na(I6\nI4\nI8\ntp1768\nag1752\na(I6\nI2\nI8\ntp1769\natp1770\nRp1771\nsg25\ng4\n((lp1772\ng1760\nag1748\nag1762\nag1767\nag1766\nag1763\nag1765\nag1768\nag1761\nag1769\nag1764\natp1773\nRp1774\nsg29\n(dp1775\ng1760\n(i__main__\nNode\np1776\n(dp1777\ng8\ng4\n((lp1778\n(I6\nI1\nI11\ntp1779\na(I6\nI4\nI11\ntp1780\na(I6\nI5\nI11\ntp1781\na(I6\nI2\nI11\ntp1782\na(I6\nI3\nI11\ntp1783\natp1784\nRp1785\nsg15\nI5\nsg16\ng4\n((lp1786\n(I6\nI3\nI10\ntp1787\na(I6\nI6\nI11\ntp1788\na(I6\nI4\nI10\ntp1789\nag1782\nag1783\na(I6\nI2\nI10\ntp1790\na(I6\nI5\nI10\ntp1791\na(I6\nI1\nI10\ntp1792\nag1781\nag1779\nag1780\natp1793\nRp1794\nsg25\ng4\n((lp1795\ng1787\nag1789\nag1792\nag1791\nag1790\nag1788\natp1796\nRp1797\nsg29\n(dp1798\nsg169\n(dp1799\ng1760\ng1749\nssg171\nI00\nsbsg1767\n(i__main__\nNode\np1800\n(dp1801\ng8\ng4\n((lp1802\n(I6\nI3\nI4\ntp1803\na(I6\nI4\nI5\ntp1804\na(I6\nI3\nI5\ntp1805\na(I6\nI4\nI4\ntp1806\na(I6\nI2\nI7\ntp1807\na(I6\nI7\nI2\ntp1808\na(I6\nI4\nI7\ntp1809\na(I6\nI2\nI6\ntp1810\na(I6\nI3\nI7\ntp1811\na(I6\nI4\nI6\ntp1812\na(I6\nI2\nI5\ntp1813\na(I6\nI5\nI5\ntp1814\na(I6\nI7\nI3\ntp1815\na(I6\nI5\nI2\ntp1816\na(I6\nI4\nI1\ntp1817\na(I6\nI2\nI4\ntp1818\na(I6\nI1\nI2\ntp1819\na(I6\nI2\nI3\ntp1820\na(I6\nI1\nI3\ntp1821\na(I6\nI7\nI1\ntp1822\na(I6\nI2\nI2\ntp1823\na(I6\nI5\nI4\ntp1824\na(I6\nI4\nI3\ntp1825\na(I6\nI4\nI2\ntp1826\na(I6\nI2\nI1\ntp1827\na(I6\nI1\nI1\ntp1828\na(I6\nI5\nI7\ntp1829\na(I6\nI1\nI6\ntp1830\na(I6\nI6\nI3\ntp1831\na(I6\nI3\nI2\ntp1832\na(I6\nI5\nI3\ntp1833\na(I6\nI1\nI7\ntp1834\na(I6\nI6\nI2\ntp1835\na(I6\nI1\nI4\ntp1836\na(I6\nI3\nI1\ntp1837\na(I6\nI6\nI1\ntp1838\na(I6\nI1\nI5\ntp1839\na(I6\nI7\nI7\ntp1840\na(I6\nI5\nI1\ntp1841\na(I6\nI6\nI7\ntp1842\na(I6\nI7\nI4\ntp1843\na(I6\nI6\nI6\ntp1844\na(I6\nI7\nI5\ntp1845\na(I6\nI6\nI5\ntp1846\na(I6\nI7\nI6\ntp1847\na(I6\nI3\nI6\ntp1848\na(I6\nI6\nI4\ntp1849\na(I6\nI5\nI6\ntp1850\na(I6\nI3\nI3\ntp1851\natp1852\nRp1853\nsg15\nI49\nsg16\ng4\n((lp1854\n(I6\nI1\nI8\ntp1855\nag1803\nag1804\nag1851\nag1805\nag1806\nag1807\nag1808\nag1809\nag1810\nag1811\na(I6\nI5\nI8\ntp1856\nag1812\nag1813\nag1815\nag1830\nag1817\nag1818\nag1819\nag1820\nag1821\na(I6\nI3\nI8\ntp1857\nag1825\nag1823\na(I6\nI2\nI8\ntp1858\nag1824\nag1834\nag1826\nag1827\nag1814\nag1829\nag1816\nag1831\nag1845\nag1833\na(I6\nI7\nI8\ntp1859\nag1822\nag1835\na(I6\nI8\nI1\ntp1860\nag1836\nag1838\nag1839\na(I6\nI8\nI3\ntp1861\nag1841\nag1849\nag1847\nag1842\nag1843\nag1844\na(I6\nI8\nI5\ntp1862\nag1837\nag1846\na(I6\nI4\nI8\ntp1863\nag1832\nag1848\nag1828\na(I6\nI8\nI7\ntp1864\nag1850\nag1840\natp1865\nRp1866\nsg25\ng4\n((lp1867\ng1855\nag1861\nag1864\nag1857\nag1862\nag1860\nag1859\nag1858\nag1856\nag1863\natp1868\nRp1869\nsg29\n(dp1870\nsg169\n(dp1871\ng1767\ng1749\nssg171\nI01\nsbssg169\n(dp1872\ng1748\ng1721\nssg171\nI00\nsbsg1737\n(i__main__\nNode\np1873\n(dp1874\ng8\ng4\n((lp1875\n(I6\nI10\nI7\ntp1876\na(I6\nI11\nI7\ntp1877\na(I6\nI9\nI7\ntp1878\natp1879\nRp1880\nsg15\nI3\nsg16\ng4\n((lp1881\n(I6\nI10\nI6\ntp1882\nag1877\na(I6\nI8\nI7\ntp1883\na(I6\nI11\nI8\ntp1884\na(I6\nI9\nI6\ntp1885\na(I6\nI10\nI8\ntp1886\nag1878\na(I6\nI9\nI8\ntp1887\nag1876\na(I6\nI11\nI6\ntp1888\natp1889\nRp1890\nsg25\ng4\n((lp1891\ng1882\nag1888\nag1884\nag1885\nag1886\nag1887\nag1883\natp1892\nRp1893\nsg29\n(dp1894\ng1888\n(i__main__\nNode\np1895\n(dp1896\ng8\ng4\n((lp1897\n(I6\nI10\nI5\ntp1898\na(I6\nI9\nI5\ntp1899\na(I6\nI11\nI5\ntp1900\natp1901\nRp1902\nsg15\nI3\nsg16\ng4\n((lp1903\n(I6\nI11\nI6\ntp1904\na(I6\nI10\nI6\ntp1905\nag1899\na(I6\nI9\nI6\ntp1906\nag1898\na(I6\nI8\nI5\ntp1907\na(I6\nI11\nI4\ntp1908\na(I6\nI10\nI4\ntp1909\nag1900\na(I6\nI9\nI4\ntp1910\natp1911\nRp1912\nsg25\ng4\n((lp1913\ng1905\nag1910\nag1908\nag1907\nag1909\nag1906\nag1904\natp1914\nRp1915\nsg29\n(dp1916\ng1908\n(i__main__\nNode\np1917\n(dp1918\ng8\ng4\n((lp1919\n(I6\nI9\nI3\ntp1920\na(I6\nI10\nI3\ntp1921\na(I6\nI11\nI3\ntp1922\natp1923\nRp1924\nsg15\nI3\nsg16\ng4\n((lp1925\n(I6\nI8\nI3\ntp1926\na(I6\nI11\nI2\ntp1927\nag1922\na(I6\nI11\nI4\ntp1928\na(I6\nI10\nI4\ntp1929\na(I6\nI9\nI2\ntp1930\nag1921\nag1920\na(I6\nI9\nI4\ntp1931\na(I6\nI10\nI2\ntp1932\natp1933\nRp1934\nsg25\ng4\n((lp1935\ng1926\nag1927\nag1928\nag1929\nag1930\nag1931\nag1932\natp1936\nRp1937\nsg29\n(dp1938\ng1930\n(i__main__\nNode\np1939\n(dp1940\ng8\ng4\n((lp1941\n(I6\nI11\nI1\ntp1942\na(I6\nI10\nI1\ntp1943\na(I6\nI9\nI1\ntp1944\natp1945\nRp1946\nsg15\nI3\nsg16\ng4\n((lp1947\n(I6\nI11\nI2\ntp1948\na(I6\nI9\nI2\ntp1949\nag1943\nag1944\nag1942\na(I6\nI8\nI1\ntp1950\na(I6\nI10\nI2\ntp1951\natp1952\nRp1953\nsg25\ng4\n((lp1954\ng1948\nag1949\nag1950\nag1951\natp1955\nRp1956\nsg29\n(dp1957\nsg169\n(dp1958\ng1930\ng1917\nssg171\nI00\nsbssg169\n(dp1959\ng1908\ng1895\nssg171\nI00\nsbssg169\n(dp1960\ng1888\ng1873\nssg171\nI00\nsbssg169\n(dp1961\ng1737\ng1721\nssg171\nI00\nsbssg169\n(dp1962\n(I6\nI7\nI10\ntp1963\n(i__main__\nNode\np1964\n(dp1965\ng8\ng4\n((lp1966\n(I6\nI8\nI11\ntp1967\na(I6\nI9\nI11\ntp1968\na(I6\nI7\nI11\ntp1969\na(I6\nI10\nI11\ntp1970\na(I6\nI11\nI11\ntp1971\natp1972\nRp1973\nsg15\nI5\nsg16\ng4\n((lp1974\ng1969\na(I6\nI10\nI10\ntp1975\na(I6\nI11\nI10\ntp1976\na(I6\nI9\nI10\ntp1977\nag1968\na(I6\nI6\nI11\ntp1978\nag1967\na(I6\nI8\nI10\ntp1979\nag1963\nag1970\nag1971\natp1980\nRp1981\nsg25\ng4\n((lp1982\ng1975\nag1977\nag1978\nag1976\nag1963\nag1979\natp1983\nRp1984\nsg29\n(dp1985\ng1963\ng1721\nssg169\n(dp1986\nsg171\nI00\nsbssg171\nI00\nsbag1939\nag1749\nag1873\nag1776\nag1964\nag1917\nag1895\nag1800\natp1987\nRp1988\nsg353\ng4\n((lp1989\ng1964\natp1990\nRp1991\nsg357\n(dp1992\nI1\ng4\n((lp1993\ntp1994\nRp1995\nsI2\ng4\n((lp1996\ng1971\natp1997\nRp1998\nssg365\ng4\n((lp1999\n(I6\nI3\nI4\ntp2000\na(I6\nI4\nI5\ntp2001\na(I6\nI3\nI3\ntp2002\na(I6\nI3\nI5\ntp2003\na(I6\nI4\nI4\ntp2004\na(I6\nI2\nI7\ntp2005\na(I6\nI3\nI6\ntp2006\na(I6\nI4\nI7\ntp2007\na(I6\nI2\nI6\ntp2008\na(I6\nI3\nI7\ntp2009\na(I6\nI4\nI6\ntp2010\na(I6\nI2\nI5\ntp2011\na(I6\nI5\nI5\ntp2012\na(I6\nI1\nI5\ntp2013\na(I6\nI1\nI6\ntp2014\na(I6\nI4\nI1\ntp2015\na(I6\nI2\nI4\ntp2016\na(I6\nI1\nI2\ntp2017\na(I6\nI2\nI3\ntp2018\na(I6\nI1\nI3\ntp2019\na(I6\nI4\nI3\ntp2020\na(I6\nI2\nI2\ntp2021\na(I6\nI5\nI4\ntp2022\na(I6\nI4\nI2\ntp2023\na(I6\nI2\nI1\ntp2024\na(I6\nI1\nI1\ntp2025\na(I6\nI5\nI7\ntp2026\na(I6\nI5\nI2\ntp2027\na(I6\nI5\nI3\ntp2028\na(I6\nI6\nI3\ntp2029\na(I6\nI3\nI2\ntp2030\na(I6\nI1\nI7\ntp2031\na(I6\nI7\nI1\ntp2032\na(I6\nI6\nI2\ntp2033\na(I6\nI1\nI4\ntp2034\na(I6\nI3\nI1\ntp2035\na(I6\nI6\nI1\ntp2036\na(I6\nI5\nI1\ntp2037\na(I6\nI6\nI7\ntp2038\na(I6\nI7\nI3\ntp2039\na(I6\nI7\nI4\ntp2040\na(I6\nI6\nI6\ntp2041\na(I6\nI7\nI5\ntp2042\na(I6\nI6\nI5\ntp2043\na(I6\nI7\nI6\ntp2044\na(I6\nI7\nI2\ntp2045\na(I6\nI6\nI4\ntp2046\na(I6\nI5\nI6\ntp2047\na(I6\nI7\nI7\ntp2048\natp2049\nRp2050\nss."
p6
s.