(dp0
S'maze'
p1
S"(dp0\nI0\n(lp1\n(lp2\n(i__main__\nNode\np3\n(dp4\nS'Type'\np5\nI12\nsba(i__main__\nNode\np6\n(dp7\ng5\nI12\nsba(i__main__\nNode\np8\n(dp9\ng5\nI12\nsba(i__main__\nNode\np10\n(dp11\ng5\nI12\nsba(i__main__\nNode\np12\n(dp13\ng5\nI12\nsba(i__main__\nNode\np14\n(dp15\ng5\nI12\nsba(i__main__\nNode\np16\n(dp17\ng5\nI12\nsba(i__main__\nNode\np18\n(dp19\ng5\nI12\nsba(i__main__\nNode\np20\n(dp21\ng5\nI12\nsba(i__main__\nNode\np22\n(dp23\ng5\nI12\nsba(i__main__\nNode\np24\n(dp25\ng5\nI12\nsba(i__main__\nNode\np26\n(dp27\ng5\nI12\nsba(i__main__\nNode\np28\n(dp29\ng5\nI12\nsbaa(lp30\n(i__main__\nNode\np31\n(dp32\ng5\nI12\nsba(i__main__\nNode\np33\n(dp34\ng5\nI11\nsba(i__main__\nNode\np35\n(dp36\ng5\nI11\nsba(i__main__\nNode\np37\n(dp38\ng5\nI11\nsba(i__main__\nNode\np39\n(dp40\ng5\nI11\nsba(i__main__\nNode\np41\n(dp42\ng5\nI11\nsba(i__main__\nNode\np43\n(dp44\ng5\nI11\nsba(i__main__\nNode\np45\n(dp46\ng5\nI11\nsba(i__main__\nNode\np47\n(dp48\ng5\nI11\nsba(i__main__\nNode\np49\n(dp50\ng5\nI11\nsba(i__main__\nNode\np51\n(dp52\ng5\nI11\nsba(i__main__\nNode\np53\n(dp54\ng5\nI11\nsba(i__main__\nNode\np55\n(dp56\ng5\nI12\nsbaa(lp57\n(i__main__\nNode\np58\n(dp59\ng5\nI12\nsba(i__main__\nNode\np60\n(dp61\ng5\nI11\nsba(i__main__\nNode\np62\n(dp63\ng5\nI11\nsba(i__main__\nNode\np64\n(dp65\ng5\nI11\nsba(i__main__\nNode\np66\n(dp67\ng5\nI11\nsba(i__main__\nNode\np68\n(dp69\ng5\nI11\nsba(i__main__\nNode\np70\n(dp71\ng5\nI11\nsba(i__main__\nNode\np72\n(dp73\ng5\nI11\nsba(i__main__\nNode\np74\n(dp75\ng5\nI11\nsba(i__main__\nNode\np76\n(dp77\ng5\nI11\nsba(i__main__\nNode\np78\n(dp79\ng5\nI11\nsba(i__main__\nNode\np80\n(dp81\ng5\nI11\nsba(i__main__\nNode\np82\n(dp83\ng5\nI12\nsbaa(lp84\n(i__main__\nNode\np85\n(dp86\ng5\nI12\nsba(i__main__\nNode\np87\n(dp88\ng5\nI11\nsba(i__main__\nNode\np89\n(dp90\ng5\nI11\nsba(i__main__\nNode\np91\n(dp92\ng5\nI11\nsba(i__main__\nNode\np93\n(dp94\ng5\nI11\nsba(i__main__\nNode\np95\n(dp96\ng5\nI11\nsba(i__main__\nNode\np97\n(dp98\ng5\nI11\nsba(i__main__\nNode\np99\n(dp100\ng5\nI11\nsba(i__main__\nNode\np101\n(dp102\ng5\nI11\nsba(i__main__\nNode\np103\n(dp104\ng5\nI11\nsba(i__main__\nNode\np105\n(dp106\ng5\nI11\nsba(i__main__\nNode\np107\n(dp108\ng5\nI11\nsba(i__main__\nNode\np109\n(dp110\ng5\nI12\nsbaa(lp111\n(i__main__\nNode\np112\n(dp113\ng5\nI12\nsba(i__main__\nNode\np114\n(dp115\ng5\nI11\nsba(i__main__\nNode\np116\n(dp117\ng5\nI11\nsba(i__main__\nNode\np118\n(dp119\ng5\nI11\nsba(i__main__\nNode\np120\n(dp121\ng5\nI11\nsba(i__main__\nNode\np122\n(dp123\ng5\nI11\nsba(i__main__\nNode\np124\n(dp125\ng5\nI11\nsba(i__main__\nNode\np126\n(dp127\ng5\nI11\nsba(i__main__\nNode\np128\n(dp129\ng5\nI11\nsba(i__main__\nNode\np130\n(dp131\ng5\nI11\nsba(i__main__\nNode\np132\n(dp133\ng5\nI11\nsba(i__main__\nNode\np134\n(dp135\ng5\nI11\nsba(i__main__\nNode\np136\n(dp137\ng5\nI12\nsbaa(lp138\n(i__main__\nNode\np139\n(dp140\ng5\nI12\nsba(i__main__\nNode\np141\n(dp142\ng5\nI11\nsba(i__main__\nNode\np143\n(dp144\ng5\nI11\nsba(i__main__\nNode\np145\n(dp146\ng5\nI11\nsba(i__main__\nNode\np147\n(dp148\ng5\nI11\nsba(i__main__\nNode\np149\n(dp150\ng5\nI11\nsba(i__main__\nNode\np151\n(dp152\ng5\nI11\nsba(i__main__\nNode\np153\n(dp154\ng5\nI11\nsba(i__main__\nNode\np155\n(dp156\ng5\nI11\nsba(i__main__\nNode\np157\n(dp158\ng5\nI11\nsba(i__main__\nNode\np159\n(dp160\ng5\nI11\nsba(i__main__\nNode\np161\n(dp162\ng5\nI11\nsba(i__main__\nNode\np163\n(dp164\ng5\nI12\nsbaa(lp165\n(i__main__\nNode\np166\n(dp167\ng5\nI12\nsba(i__main__\nNode\np168\n(dp169\ng5\nI11\nsba(i__main__\nNode\np170\n(dp171\ng5\nI11\nsba(i__main__\nNode\np172\n(dp173\ng5\nI11\nsba(i__main__\nNode\np174\n(dp175\ng5\nI11\nsba(i__main__\nNode\np176\n(dp177\ng5\nI11\nsba(i__main__\nNode\np178\n(dp179\ng5\nI11\nsba(i__main__\nNode\np180\n(dp181\ng5\nI11\nsba(i__main__\nNode\np182\n(dp183\ng5\nI11\nsba(i__main__\nNode\np184\n(dp185\ng5\nI11\nsba(i__main__\nNode\np186\n(dp187\ng5\nI11\nsba(i__main__\nNode\np188\n(dp189\ng5\nI11\nsba(i__main__\nNode\np190\n(dp191\ng5\nI12\nsbaa(lp192\n(i__main__\nNode\np193\n(dp194\ng5\nI12\nsba(i__main__\nNode\np195\n(dp196\ng5\nI11\nsba(i__main__\nNode\np197\n(dp198\ng5\nI11\nsba(i__main__\nNode\np199\n(dp200\ng5\nI11\nsba(i__main__\nNode\np201\n(dp202\ng5\nI11\nsba(i__main__\nNode\np203\n(dp204\ng5\nI11\nsba(i__main__\nNode\np205\n(dp206\ng5\nI11\nsba(i__main__\nNode\np207\n(dp208\ng5\nI11\nsba(i__main__\nNode\np209\n(dp210\ng5\nI11\nsba(i__main__\nNode\np211\n(dp212\ng5\nI11\nsba(i__main__\nNode\np213\n(dp214\ng5\nI11\nsba(i__main__\nNode\np215\n(dp216\ng5\nI11\nsba(i__main__\nNode\np217\n(dp218\ng5\nI12\nsbaa(lp219\n(i__main__\nNode\np220\n(dp221\ng5\nI12\nsba(i__main__\nNode\np222\n(dp223\ng5\nI11\nsba(i__main__\nNode\np224\n(dp225\ng5\nI11\nsba(i__main__\nNode\np226\n(dp227\ng5\nI11\nsba(i__main__\nNode\np228\n(dp229\ng5\nI11\nsba(i__main__\nNode\np230\n(dp231\ng5\nI11\nsba(i__main__\nNode\np232\n(dp233\ng5\nI11\nsba(i__main__\nNode\np234\n(dp235\ng5\nI11\nsba(i__main__\nNode\np236\n(dp237\ng5\nI11\nsba(i__main__\nNode\np238\n(dp239\ng5\nI11\nsba(i__main__\nNode\np240\n(dp241\ng5\nI11\nsba(i__main__\nNode\np242\n(dp243\ng5\nI11\nsba(i__main__\nNode\np244\n(dp245\ng5\nI12\nsbaa(lp246\n(i__main__\nNode\np247\n(dp248\ng5\nI12\nsba(i__main__\nNode\np249\n(dp250\ng5\nI11\nsba(i__main__\nNode\np251\n(dp252\ng5\nI11\nsba(i__main__\nNode\np253\n(dp254\ng5\nI11\nsba(i__main__\nNode\np255\n(dp256\ng5\nI11\nsba(i__main__\nNode\np257\n(dp258\ng5\nI11\nsba(i__main__\nNode\np259\n(dp260\ng5\nI11\nsba(i__main__\nNode\np261\n(dp262\ng5\nI11\nsba(i__main__\nNode\np263\n(dp264\ng5\nI11\nsba(i__main__\nNode\np265\n(dp266\ng5\nI11\nsba(i__main__\nNode\np267\n(dp268\ng5\nI11\nsba(i__main__\nNode\np269\n(dp270\ng5\nI11\nsba(i__main__\nNode\np271\n(dp272\ng5\nI12\nsbaa(lp273\n(i__main__\nNode\np274\n(dp275\ng5\nI12\nsba(i__main__\nNode\np276\n(dp277\ng5\nI11\nsba(i__main__\nNode\np278\n(dp279\ng5\nI11\nsba(i__main__\nNode\np280\n(dp281\ng5\nI11\nsba(i__main__\nNode\np282\n(dp283\ng5\nI11\nsba(i__main__\nNode\np284\n(dp285\ng5\nI11\nsba(i__main__\nNode\np286\n(dp287\ng5\nI11\nsba(i__main__\nNode\np288\n(dp289\ng5\nI11\nsba(i__main__\nNode\np290\n(dp291\ng5\nI11\nsba(i__main__\nNode\np292\n(dp293\ng5\nI11\nsba(i__main__\nNode\np294\n(dp295\ng5\nI11\nsba(i__main__\nNode\np296\n(dp297\ng5\nI11\nsba(i__main__\nNode\np298\n(dp299\ng5\nI12\nsbaa(lp300\n(i__main__\nNode\np301\n(dp302\ng5\nI12\nsba(i__main__\nNode\np303\n(dp304\ng5\nI11\nsba(i__main__\nNode\np305\n(dp306\ng5\nI11\nsba(i__main__\nNode\np307\n(dp308\ng5\nI11\nsba(i__main__\nNode\np309\n(dp310\ng5\nI11\nsba(i__main__\nNode\np311\n(dp312\ng5\nI11\nsba(i__main__\nNode\np313\n(dp314\ng5\nI11\nsba(i__main__\nNode\np315\n(dp316\ng5\nI11\nsba(i__main__\nNode\np317\n(dp318\ng5\nI11\nsba(i__main__\nNode\np319\n(dp320\ng5\nI11\nsba(i__main__\nNode\np321\n(dp322\ng5\nI11\nsba(i__main__\nNode\np323\n(dp324\ng5\nI11\nsba(i__main__\nNode\np325\n(dp326\ng5\nI12\nsbaa(lp327\n(i__main__\nNode\np328\n(dp329\ng5\nI12\nsba(i__main__\nNode\np330\n(dp331\ng5\nI12\nsba(i__main__\nNode\np332\n(dp333\ng5\nI12\nsba(i__main__\nNode\np334\n(dp335\ng5\nI12\nsba(i__main__\nNode\np336\n(dp337\ng5\nI12\nsba(i__main__\nNode\np338\n(dp339\ng5\nI12\nsba(i__main__\nNode\np340\n(dp341\ng5\nI12\nsba(i__main__\nNode\np342\n(dp343\ng5\nI12\nsba(i__main__\nNode\np344\n(dp345\ng5\nI12\nsba(i__main__\nNode\np346\n(dp347\ng5\nI12\nsba(i__main__\nNode\np348\n(dp349\ng5\nI12\nsba(i__main__\nNode\np350\n(dp351\ng5\nI12\nsba(i__main__\nNode\np352\n(dp353\ng5\nI12\nsbaasI1\n(lp354\n(lp355\n(i__main__\nNode\np356\n(dp357\ng5\nI12\nsba(i__main__\nNode\np358\n(dp359\ng5\nI12\nsba(i__main__\nNode\np360\n(dp361\ng5\nI12\nsba(i__main__\nNode\np362\n(dp363\ng5\nI12\nsba(i__main__\nNode\np364\n(dp365\ng5\nI12\nsba(i__main__\nNode\np366\n(dp367\ng5\nI12\nsba(i__main__\nNode\np368\n(dp369\ng5\nI12\nsba(i__main__\nNode\np370\n(dp371\ng5\nI12\nsba(i__main__\nNode\np372\n(dp373\ng5\nI12\nsba(i__main__\nNode\np374\n(dp375\ng5\nI12\nsba(i__main__\nNode\np376\n(dp377\ng5\nI12\nsba(i__main__\nNode\np378\n(dp379\ng5\nI12\nsba(i__main__\nNode\np380\n(dp381\ng5\nI12\nsbaa(lp382\n(i__main__\nNode\np383\n(dp384\ng5\nI12\nsba(i__main__\nNode\np385\n(dp386\ng5\nI14\nsS'Value'\np387\nI1\nsba(i__main__\nNode\np388\n(dp389\ng5\nI11\nsba(i__main__\nNode\np390\n(dp391\ng5\nI11\nsba(i__main__\nNode\np392\n(dp393\ng5\nI15\nsba(i__main__\nNode\np394\n(dp395\ng5\nI11\nsba(i__main__\nNode\np396\n(dp397\ng5\nI11\nsba(i__main__\nNode\np398\n(dp399\ng5\nI15\nsba(i__main__\nNode\np400\n(dp401\ng5\nI11\nsba(i__main__\nNode\np402\n(dp403\ng5\nI11\nsba(i__main__\nNode\np404\n(dp405\ng5\nI12\nsba(i__main__\nNode\np406\n(dp407\ng5\nI14\nsg387\nI2\nsba(i__main__\nNode\np408\n(dp409\ng5\nI12\nsbaa(lp410\n(i__main__\nNode\np411\n(dp412\ng5\nI12\nsba(i__main__\nNode\np413\n(dp414\ng5\nI11\nsba(i__main__\nNode\np415\n(dp416\ng5\nI11\nsba(i__main__\nNode\np417\n(dp418\ng5\nI11\nsba(i__main__\nNode\np419\n(dp420\ng5\nI12\nsba(i__main__\nNode\np421\n(dp422\ng5\nI11\nsba(i__main__\nNode\np423\n(dp424\ng5\nI11\nsba(i__main__\nNode\np425\n(dp426\ng5\nI12\nsba(i__main__\nNode\np427\n(dp428\ng5\nI11\nsba(i__main__\nNode\np429\n(dp430\ng5\nI11\nsba(i__main__\nNode\np431\n(dp432\ng5\nI15\nsba(i__main__\nNode\np433\n(dp434\ng5\nI11\nsba(i__main__\nNode\np435\n(dp436\ng5\nI12\nsbaa(lp437\n(i__main__\nNode\np438\n(dp439\ng5\nI12\nsba(i__main__\nNode\np440\n(dp441\ng5\nI12\nsba(i__main__\nNode\np442\n(dp443\ng5\nI12\nsba(i__main__\nNode\np444\n(dp445\ng5\nI12\nsba(i__main__\nNode\np446\n(dp447\ng5\nI12\nsba(i__main__\nNode\np448\n(dp449\ng5\nI12\nsba(i__main__\nNode\np450\n(dp451\ng5\nI12\nsba(i__main__\nNode\np452\n(dp453\ng5\nI12\nsba(i__main__\nNode\np454\n(dp455\ng5\nI15\nsba(i__main__\nNode\np456\n(dp457\ng5\nI12\nsba(i__main__\nNode\np458\n(dp459\ng5\nI12\nsba(i__main__\nNode\np460\n(dp461\ng5\nI12\nsba(i__main__\nNode\np462\n(dp463\ng5\nI12\nsbaa(lp464\n(i__main__\nNode\np465\n(dp466\ng5\nI12\nsba(i__main__\nNode\np467\n(dp468\ng5\nI11\nsba(i__main__\nNode\np469\n(dp470\ng5\nI15\nsba(i__main__\nNode\np471\n(dp472\ng5\nI11\nsba(i__main__\nNode\np473\n(dp474\ng5\nI12\nsba(i__main__\nNode\np475\n(dp476\ng5\nI11\nsba(i__main__\nNode\np477\n(dp478\ng5\nI11\nsba(i__main__\nNode\np479\n(dp480\ng5\nI11\nsba(i__main__\nNode\np481\n(dp482\ng5\nI11\nsba(i__main__\nNode\np483\n(dp484\ng5\nI11\nsba(i__main__\nNode\np485\n(dp486\ng5\nI11\nsba(i__main__\nNode\np487\n(dp488\ng5\nI11\nsba(i__main__\nNode\np489\n(dp490\ng5\nI12\nsbaa(lp491\n(i__main__\nNode\np492\n(dp493\ng5\nI12\nsba(i__main__\nNode\np494\n(dp495\ng5\nI11\nsba(i__main__\nNode\np496\n(dp497\ng5\nI12\nsba(i__main__\nNode\np498\n(dp499\ng5\nI11\nsba(i__main__\nNode\np500\n(dp501\ng5\nI12\nsba(i__main__\nNode\np502\n(dp503\ng5\nI12\nsba(i__main__\nNode\np504\n(dp505\ng5\nI12\nsba(i__main__\nNode\np506\n(dp507\ng5\nI12\nsba(i__main__\nNode\np508\n(dp509\ng5\nI15\nsba(i__main__\nNode\np510\n(dp511\ng5\nI12\nsba(i__main__\nNode\np512\n(dp513\ng5\nI12\nsba(i__main__\nNode\np514\n(dp515\ng5\nI12\nsba(i__main__\nNode\np516\n(dp517\ng5\nI12\nsbaa(lp518\n(i__main__\nNode\np519\n(dp520\ng5\nI12\nsba(i__main__\nNode\np521\n(dp522\ng5\nI11\nsba(i__main__\nNode\np523\n(dp524\ng5\nI12\nsba(i__main__\nNode\np525\n(dp526\ng5\nI11\nsba(i__main__\nNode\np527\n(dp528\ng5\nI15\nsba(i__main__\nNode\np529\n(dp530\ng5\nI11\nsba(i__main__\nNode\np531\n(dp532\ng5\nI11\nsba(i__main__\nNode\np533\n(dp534\ng5\nI11\nsba(i__main__\nNode\np535\n(dp536\ng5\nI11\nsba(i__main__\nNode\np537\n(dp538\ng5\nI11\nsba(i__main__\nNode\np539\n(dp540\ng5\nI11\nsba(i__main__\nNode\np541\n(dp542\ng5\nI11\nsba(i__main__\nNode\np543\n(dp544\ng5\nI12\nsbaa(lp545\n(i__main__\nNode\np546\n(dp547\ng5\nI12\nsba(i__main__\nNode\np548\n(dp549\ng5\nI11\nsba(i__main__\nNode\np550\n(dp551\ng5\nI12\nsba(i__main__\nNode\np552\n(dp553\ng5\nI11\nsba(i__main__\nNode\np554\n(dp555\ng5\nI12\nsba(i__main__\nNode\np556\n(dp557\ng5\nI15\nsba(i__main__\nNode\np558\n(dp559\ng5\nI12\nsba(i__main__\nNode\np560\n(dp561\ng5\nI12\nsba(i__main__\nNode\np562\n(dp563\ng5\nI12\nsba(i__main__\nNode\np564\n(dp565\ng5\nI12\nsba(i__main__\nNode\np566\n(dp567\ng5\nI12\nsba(i__main__\nNode\np568\n(dp569\ng5\nI15\nsba(i__main__\nNode\np570\n(dp571\ng5\nI12\nsbaa(lp572\n(i__main__\nNode\np573\n(dp574\ng5\nI12\nsba(i__main__\nNode\np575\n(dp576\ng5\nI12\nsba(i__main__\nNode\np577\n(dp578\ng5\nI12\nsba(i__main__\nNode\np579\n(dp580\ng5\nI12\nsba(i__main__\nNode\np581\n(dp582\ng5\nI12\nsba(i__main__\nNode\np583\n(dp584\ng5\nI11\nsba(i__main__\nNode\np585\n(dp586\ng5\nI12\nsba(i__main__\nNode\np587\n(dp588\ng5\nI11\nsba(i__main__\nNode\np589\n(dp590\ng5\nI11\nsba(i__main__\nNode\np591\n(dp592\ng5\nI12\nsba(i__main__\nNode\np593\n(dp594\ng5\nI11\nsba(i__main__\nNode\np595\n(dp596\ng5\nI11\nsba(i__main__\nNode\np597\n(dp598\ng5\nI12\nsbaa(lp599\n(i__main__\nNode\np600\n(dp601\ng5\nI12\nsba(i__main__\nNode\np602\n(dp603\ng5\nI11\nsba(i__main__\nNode\np604\n(dp605\ng5\nI11\nsba(i__main__\nNode\np606\n(dp607\ng5\nI11\nsba(i__main__\nNode\np608\n(dp609\ng5\nI15\nsba(i__main__\nNode\np610\n(dp611\ng5\nI11\nsba(i__main__\nNode\np612\n(dp613\ng5\nI12\nsba(i__main__\nNode\np614\n(dp615\ng5\nI11\nsba(i__main__\nNode\np616\n(dp617\ng5\nI11\nsba(i__main__\nNode\np618\n(dp619\ng5\nI15\nsba(i__main__\nNode\np620\n(dp621\ng5\nI11\nsba(i__main__\nNode\np622\n(dp623\ng5\nI11\nsba(i__main__\nNode\np624\n(dp625\ng5\nI12\nsbaa(lp626\n(i__main__\nNode\np627\n(dp628\ng5\nI12\nsba(i__main__\nNode\np629\n(dp630\ng5\nI15\nsba(i__main__\nNode\np631\n(dp632\ng5\nI12\nsba(i__main__\nNode\np633\n(dp634\ng5\nI12\nsba(i__main__\nNode\np635\n(dp636\ng5\nI12\nsba(i__main__\nNode\np637\n(dp638\ng5\nI12\nsba(i__main__\nNode\np639\n(dp640\ng5\nI12\nsba(i__main__\nNode\np641\n(dp642\ng5\nI12\nsba(i__main__\nNode\np643\n(dp644\ng5\nI12\nsba(i__main__\nNode\np645\n(dp646\ng5\nI12\nsba(i__main__\nNode\np647\n(dp648\ng5\nI12\nsba(i__main__\nNode\np649\n(dp650\ng5\nI15\nsba(i__main__\nNode\np651\n(dp652\ng5\nI12\nsbaa(lp653\n(i__main__\nNode\np654\n(dp655\ng5\nI12\nsba(i__main__\nNode\np656\n(dp657\ng5\nI11\nsba(i__main__\nNode\np658\n(dp659\ng5\nI11\nsba(i__main__\nNode\np660\n(dp661\ng5\nI11\nsba(i__main__\nNode\np662\n(dp663\ng5\nI12\nsba(i__main__\nNode\np664\n(dp665\ng5\nI11\nsba(i__main__\nNode\np666\n(dp667\ng5\nI11\nsba(i__main__\nNode\np668\n(dp669\ng5\nI11\nsba(i__main__\nNode\np670\n(dp671\ng5\nI11\nsba(i__main__\nNode\np672\n(dp673\ng5\nI11\nsba(i__main__\nNode\np674\n(dp675\ng5\nI11\nsba(i__main__\nNode\np676\n(dp677\ng5\nI11\nsba(i__main__\nNode\np678\n(dp679\ng5\nI12\nsbaa(lp680\n(i__main__\nNode\np681\n(dp682\ng5\nI12\nsba(i__main__\nNode\np683\n(dp684\ng5\nI12\nsba(i__main__\nNode\np685\n(dp686\ng5\nI12\nsba(i__main__\nNode\np687\n(dp688\ng5\nI12\nsba(i__main__\nNode\np689\n(dp690\ng5\nI12\nsba(i__main__\nNode\np691\n(dp692\ng5\nI12\nsba(i__main__\nNode\np693\n(dp694\ng5\nI12\nsba(i__main__\nNode\np695\n(dp696\ng5\nI12\nsba(i__main__\nNode\np697\n(dp698\ng5\nI12\nsba(i__main__\nNode\np699\n(dp700\ng5\nI12\nsba(i__main__\nNode\np701\n(dp702\ng5\nI12\nsba(i__main__\nNode\np703\n(dp704\ng5\nI12\nsba(i__main__\nNode\np705\n(dp706\ng5\nI12\nsbaasI2\n(lp707\n(lp708\n(i__main__\nNode\np709\n(dp710\ng5\nI12\nsba(i__main__\nNode\np711\n(dp712\ng5\nI12\nsba(i__main__\nNode\np713\n(dp714\ng5\nI12\nsba(i__main__\nNode\np715\n(dp716\ng5\nI12\nsba(i__main__\nNode\np717\n(dp718\ng5\nI12\nsba(i__main__\nNode\np719\n(dp720\ng5\nI12\nsba(i__main__\nNode\np721\n(dp722\ng5\nI12\nsba(i__main__\nNode\np723\n(dp724\ng5\nI12\nsba(i__main__\nNode\np725\n(dp726\ng5\nI12\nsba(i__main__\nNode\np727\n(dp728\ng5\nI12\nsba(i__main__\nNode\np729\n(dp730\ng5\nI12\nsba(i__main__\nNode\np731\n(dp732\ng5\nI12\nsba(i__main__\nNode\np733\n(dp734\ng5\nI12\nsbaa(lp735\n(i__main__\nNode\np736\n(dp737\ng5\nI12\nsba(i__main__\nNode\np738\n(dp739\ng5\nI14\nsg387\nI2\nsba(i__main__\nNode\np740\n(dp741\ng5\nI12\nsba(i__main__\nNode\np742\n(dp743\ng5\nI11\nsba(i__main__\nNode\np744\n(dp745\ng5\nI15\nsba(i__main__\nNode\np746\n(dp747\ng5\nI11\nsba(i__main__\nNode\np748\n(dp749\ng5\nI12\nsba(i__main__\nNode\np750\n(dp751\ng5\nI11\nsba(i__main__\nNode\np752\n(dp753\ng5\nI11\nsba(i__main__\nNode\np754\n(dp755\ng5\nI15\nsba(i__main__\nNode\np756\n(dp757\ng5\nI11\nsba(i__main__\nNode\np758\n(dp759\ng5\nI14\nsg387\nI1\nsba(i__main__\nNode\np760\n(dp761\ng5\nI12\nsbaa(lp762\n(i__main__\nNode\np763\n(dp764\ng5\nI12\nsba(i__main__\nNode\np765\n(dp766\ng5\nI11\nsba(i__main__\nNode\np767\n(dp768\ng5\nI15\nsba(i__main__\nNode\np769\n(dp770\ng5\nI11\nsba(i__main__\nNode\np771\n(dp772\ng5\nI12\nsba(i__main__\nNode\np773\n(dp774\ng5\nI11\nsba(i__main__\nNode\np775\n(dp776\ng5\nI15\nsba(i__main__\nNode\np777\n(dp778\ng5\nI11\nsba(i__main__\nNode\np779\n(dp780\ng5\nI11\nsba(i__main__\nNode\np781\n(dp782\ng5\nI12\nsba(i__main__\nNode\np783\n(dp784\ng5\nI11\nsba(i__main__\nNode\np785\n(dp786\ng5\nI11\nsba(i__main__\nNode\np787\n(dp788\ng5\nI12\nsbaa(lp789\n(i__main__\nNode\np790\n(dp791\ng5\nI12\nsba(i__main__\nNode\np792\n(dp793\ng5\nI11\nsba(i__main__\nNode\np794\n(dp795\ng5\nI12\nsba(i__main__\nNode\np796\n(dp797\ng5\nI11\nsba(i__main__\nNode\np798\n(dp799\ng5\nI12\nsba(i__main__\nNode\np800\n(dp801\ng5\nI11\nsba(i__main__\nNode\np802\n(dp803\ng5\nI12\nsba(i__main__\nNode\np804\n(dp805\ng5\nI11\nsba(i__main__\nNode\np806\n(dp807\ng5\nI11\nsba(i__main__\nNode\np808\n(dp809\ng5\nI12\nsba(i__main__\nNode\np810\n(dp811\ng5\nI11\nsba(i__main__\nNode\np812\n(dp813\ng5\nI11\nsba(i__main__\nNode\np814\n(dp815\ng5\nI12\nsbaa(lp816\n(i__main__\nNode\np817\n(dp818\ng5\nI12\nsba(i__main__\nNode\np819\n(dp820\ng5\nI11\nsba(i__main__\nNode\np821\n(dp822\ng5\nI12\nsba(i__main__\nNode\np823\n(dp824\ng5\nI12\nsba(i__main__\nNode\np825\n(dp826\ng5\nI12\nsba(i__main__\nNode\np827\n(dp828\ng5\nI12\nsba(i__main__\nNode\np829\n(dp830\ng5\nI12\nsba(i__main__\nNode\np831\n(dp832\ng5\nI12\nsba(i__main__\nNode\np833\n(dp834\ng5\nI12\nsba(i__main__\nNode\np835\n(dp836\ng5\nI12\nsba(i__main__\nNode\np837\n(dp838\ng5\nI12\nsba(i__main__\nNode\np839\n(dp840\ng5\nI12\nsba(i__main__\nNode\np841\n(dp842\ng5\nI12\nsbaa(lp843\n(i__main__\nNode\np844\n(dp845\ng5\nI12\nsba(i__main__\nNode\np846\n(dp847\ng5\nI11\nsba(i__main__\nNode\np848\n(dp849\ng5\nI15\nsba(i__main__\nNode\np850\n(dp851\ng5\nI11\nsba(i__main__\nNode\np852\n(dp853\ng5\nI11\nsba(i__main__\nNode\np854\n(dp855\ng5\nI11\nsba(i__main__\nNode\np856\n(dp857\ng5\nI11\nsba(i__main__\nNode\np858\n(dp859\ng5\nI11\nsba(i__main__\nNode\np860\n(dp861\ng5\nI11\nsba(i__main__\nNode\np862\n(dp863\ng5\nI12\nsba(i__main__\nNode\np864\n(dp865\ng5\nI11\nsba(i__main__\nNode\np866\n(dp867\ng5\nI11\nsba(i__main__\nNode\np868\n(dp869\ng5\nI12\nsbaa(lp870\n(i__main__\nNode\np871\n(dp872\ng5\nI12\nsba(i__main__\nNode\np873\n(dp874\ng5\nI11\nsba(i__main__\nNode\np875\n(dp876\ng5\nI12\nsba(i__main__\nNode\np877\n(dp878\ng5\nI12\nsba(i__main__\nNode\np879\n(dp880\ng5\nI12\nsba(i__main__\nNode\np881\n(dp882\ng5\nI12\nsba(i__main__\nNode\np883\n(dp884\ng5\nI12\nsba(i__main__\nNode\np885\n(dp886\ng5\nI12\nsba(i__main__\nNode\np887\n(dp888\ng5\nI12\nsba(i__main__\nNode\np889\n(dp890\ng5\nI12\nsba(i__main__\nNode\np891\n(dp892\ng5\nI11\nsba(i__main__\nNode\np893\n(dp894\ng5\nI11\nsba(i__main__\nNode\np895\n(dp896\ng5\nI12\nsbaa(lp897\n(i__main__\nNode\np898\n(dp899\ng5\nI12\nsba(i__main__\nNode\np900\n(dp901\ng5\nI11\nsba(i__main__\nNode\np902\n(dp903\ng5\nI15\nsba(i__main__\nNode\np904\n(dp905\ng5\nI11\nsba(i__main__\nNode\np906\n(dp907\ng5\nI11\nsba(i__main__\nNode\np908\n(dp909\ng5\nI11\nsba(i__main__\nNode\np910\n(dp911\ng5\nI11\nsba(i__main__\nNode\np912\n(dp913\ng5\nI11\nsba(i__main__\nNode\np914\n(dp915\ng5\nI11\nsba(i__main__\nNode\np916\n(dp917\ng5\nI15\nsba(i__main__\nNode\np918\n(dp919\ng5\nI11\nsba(i__main__\nNode\np920\n(dp921\ng5\nI11\nsba(i__main__\nNode\np922\n(dp923\ng5\nI12\nsbaa(lp924\n(i__main__\nNode\np925\n(dp926\ng5\nI12\nsba(i__main__\nNode\np927\n(dp928\ng5\nI12\nsba(i__main__\nNode\np929\n(dp930\ng5\nI12\nsba(i__main__\nNode\np931\n(dp932\ng5\nI15\nsba(i__main__\nNode\np933\n(dp934\ng5\nI12\nsba(i__main__\nNode\np935\n(dp936\ng5\nI12\nsba(i__main__\nNode\np937\n(dp938\ng5\nI12\nsba(i__main__\nNode\np939\n(dp940\ng5\nI12\nsba(i__main__\nNode\np941\n(dp942\ng5\nI12\nsba(i__main__\nNode\np943\n(dp944\ng5\nI12\nsba(i__main__\nNode\np945\n(dp946\ng5\nI12\nsba(i__main__\nNode\np947\n(dp948\ng5\nI15\nsba(i__main__\nNode\np949\n(dp950\ng5\nI12\nsbaa(lp951\n(i__main__\nNode\np952\n(dp953\ng5\nI12\nsba(i__main__\nNode\np954\n(dp955\ng5\nI11\nsba(i__main__\nNode\np956\n(dp957\ng5\nI12\nsba(i__main__\nNode\np958\n(dp959\ng5\nI11\nsba(i__main__\nNode\np960\n(dp961\ng5\nI11\nsba(i__main__\nNode\np962\n(dp963\ng5\nI12\nsba(i__main__\nNode\np964\n(dp965\ng5\nI11\nsba(i__main__\nNode\np966\n(dp967\ng5\nI11\nsba(i__main__\nNode\np968\n(dp969\ng5\nI12\nsba(i__main__\nNode\np970\n(dp971\ng5\nI11\nsba(i__main__\nNode\np972\n(dp973\ng5\nI12\nsba(i__main__\nNode\np974\n(dp975\ng5\nI11\nsba(i__main__\nNode\np976\n(dp977\ng5\nI12\nsbaa(lp978\n(i__main__\nNode\np979\n(dp980\ng5\nI12\nsba(i__main__\nNode\np981\n(dp982\ng5\nI11\nsba(i__main__\nNode\np983\n(dp984\ng5\nI12\nsba(i__main__\nNode\np985\n(dp986\ng5\nI11\nsba(i__main__\nNode\np987\n(dp988\ng5\nI11\nsba(i__main__\nNode\np989\n(dp990\ng5\nI12\nsba(i__main__\nNode\np991\n(dp992\ng5\nI11\nsba(i__main__\nNode\np993\n(dp994\ng5\nI11\nsba(i__main__\nNode\np995\n(dp996\ng5\nI12\nsba(i__main__\nNode\np997\n(dp998\ng5\nI11\nsba(i__main__\nNode\np999\n(dp1000\ng5\nI12\nsba(i__main__\nNode\np1001\n(dp1002\ng5\nI11\nsba(i__main__\nNode\np1003\n(dp1004\ng5\nI12\nsbaa(lp1005\n(i__main__\nNode\np1006\n(dp1007\ng5\nI12\nsba(i__main__\nNode\np1008\n(dp1009\ng5\nI11\nsba(i__main__\nNode\np1010\n(dp1011\ng5\nI15\nsba(i__main__\nNode\np1012\n(dp1013\ng5\nI11\nsba(i__main__\nNode\np1014\n(dp1015\ng5\nI11\nsba(i__main__\nNode\np1016\n(dp1017\ng5\nI15\nsba(i__main__\nNode\np1018\n(dp1019\ng5\nI11\nsba(i__main__\nNode\np1020\n(dp1021\ng5\nI11\nsba(i__main__\nNode\np1022\n(dp1023\ng5\nI15\nsba(i__main__\nNode\np1024\n(dp1025\ng5\nI11\nsba(i__main__\nNode\np1026\n(dp1027\ng5\nI12\nsba(i__main__\nNode\np1028\n(dp1029\ng5\nI11\nsba(i__main__\nNode\np1030\n(dp1031\ng5\nI12\nsbaa(lp1032\n(i__main__\nNode\np1033\n(dp1034\ng5\nI12\nsba(i__main__\nNode\np1035\n(dp1036\ng5\nI12\nsba(i__main__\nNode\np1037\n(dp1038\ng5\nI12\nsba(i__main__\nNode\np1039\n(dp1040\ng5\nI12\nsba(i__main__\nNode\np1041\n(dp1042\ng5\nI12\nsba(i__main__\nNode\np1043\n(dp1044\ng5\nI12\nsba(i__main__\nNode\np1045\n(dp1046\ng5\nI12\nsba(i__main__\nNode\np1047\n(dp1048\ng5\nI12\nsba(i__main__\nNode\np1049\n(dp1050\ng5\nI12\nsba(i__main__\nNode\np1051\n(dp1052\ng5\nI12\nsba(i__main__\nNode\np1053\n(dp1054\ng5\nI12\nsba(i__main__\nNode\np1055\n(dp1056\ng5\nI12\nsba(i__main__\nNode\np1057\n(dp1058\ng5\nI12\nsbaasI3\n(lp1059\n(lp1060\n(i__main__\nNode\np1061\n(dp1062\ng5\nI12\nsba(i__main__\nNode\np1063\n(dp1064\ng5\nI12\nsba(i__main__\nNode\np1065\n(dp1066\ng5\nI12\nsba(i__main__\nNode\np1067\n(dp1068\ng5\nI12\nsba(i__main__\nNode\np1069\n(dp1070\ng5\nI12\nsba(i__main__\nNode\np1071\n(dp1072\ng5\nI12\nsba(i__main__\nNode\np1073\n(dp1074\ng5\nI12\nsba(i__main__\nNode\np1075\n(dp1076\ng5\nI12\nsba(i__main__\nNode\np1077\n(dp1078\ng5\nI12\nsba(i__main__\nNode\np1079\n(dp1080\ng5\nI12\nsba(i__main__\nNode\np1081\n(dp1082\ng5\nI12\nsba(i__main__\nNode\np1083\n(dp1084\ng5\nI12\nsba(i__main__\nNode\np1085\n(dp1086\ng5\nI12\nsbaa(lp1087\n(i__main__\nNode\np1088\n(dp1089\ng5\nI12\nsba(i__main__\nNode\np1090\n(dp1091\ng5\nI11\nsba(i__main__\nNode\np1092\n(dp1093\ng5\nI11\nsba(i__main__\nNode\np1094\n(dp1095\ng5\nI11\nsba(i__main__\nNode\np1096\n(dp1097\ng5\nI11\nsba(i__main__\nNode\np1098\n(dp1099\ng5\nI11\nsba(i__main__\nNode\np1100\n(dp1101\ng5\nI11\nsba(i__main__\nNode\np1102\n(dp1103\ng5\nI11\nsba(i__main__\nNode\np1104\n(dp1105\ng5\nI15\nsba(i__main__\nNode\np1106\n(dp1107\ng5\nI11\nsba(i__main__\nNode\np1108\n(dp1109\ng5\nI11\nsba(i__main__\nNode\np1110\n(dp1111\ng5\nI14\nsg387\nI2\nsba(i__main__\nNode\np1112\n(dp1113\ng5\nI12\nsbaa(lp1114\n(i__main__\nNode\np1115\n(dp1116\ng5\nI12\nsba(i__main__\nNode\np1117\n(dp1118\ng5\nI11\nsba(i__main__\nNode\np1119\n(dp1120\ng5\nI11\nsba(i__main__\nNode\np1121\n(dp1122\ng5\nI11\nsba(i__main__\nNode\np1123\n(dp1124\ng5\nI11\nsba(i__main__\nNode\np1125\n(dp1126\ng5\nI11\nsba(i__main__\nNode\np1127\n(dp1128\ng5\nI11\nsba(i__main__\nNode\np1129\n(dp1130\ng5\nI11\nsba(i__main__\nNode\np1131\n(dp1132\ng5\nI12\nsba(i__main__\nNode\np1133\n(dp1134\ng5\nI15\nsba(i__main__\nNode\np1135\n(dp1136\ng5\nI12\nsba(i__main__\nNode\np1137\n(dp1138\ng5\nI12\nsba(i__main__\nNode\np1139\n(dp1140\ng5\nI12\nsbaa(lp1141\n(i__main__\nNode\np1142\n(dp1143\ng5\nI12\nsba(i__main__\nNode\np1144\n(dp1145\ng5\nI11\nsba(i__main__\nNode\np1146\n(dp1147\ng5\nI11\nsba(i__main__\nNode\np1148\n(dp1149\ng5\nI11\nsba(i__main__\nNode\np1150\n(dp1151\ng5\nI11\nsba(i__main__\nNode\np1152\n(dp1153\ng5\nI11\nsba(i__main__\nNode\np1154\n(dp1155\ng5\nI11\nsba(i__main__\nNode\np1156\n(dp1157\ng5\nI11\nsba(i__main__\nNode\np1158\n(dp1159\ng5\nI12\nsba(i__main__\nNode\np1160\n(dp1161\ng5\nI11\nsba(i__main__\nNode\np1162\n(dp1163\ng5\nI11\nsba(i__main__\nNode\np1164\n(dp1165\ng5\nI11\nsba(i__main__\nNode\np1166\n(dp1167\ng5\nI12\nsbaa(lp1168\n(i__main__\nNode\np1169\n(dp1170\ng5\nI12\nsba(i__main__\nNode\np1171\n(dp1172\ng5\nI11\nsba(i__main__\nNode\np1173\n(dp1174\ng5\nI11\nsba(i__main__\nNode\np1175\n(dp1176\ng5\nI11\nsba(i__main__\nNode\np1177\n(dp1178\ng5\nI11\nsba(i__main__\nNode\np1179\n(dp1180\ng5\nI11\nsba(i__main__\nNode\np1181\n(dp1182\ng5\nI11\nsba(i__main__\nNode\np1183\n(dp1184\ng5\nI11\nsba(i__main__\nNode\np1185\n(dp1186\ng5\nI12\nsba(i__main__\nNode\np1187\n(dp1188\ng5\nI11\nsba(i__main__\nNode\np1189\n(dp1190\ng5\nI11\nsba(i__main__\nNode\np1191\n(dp1192\ng5\nI11\nsba(i__main__\nNode\np1193\n(dp1194\ng5\nI12\nsbaa(lp1195\n(i__main__\nNode\np1196\n(dp1197\ng5\nI12\nsba(i__main__\nNode\np1198\n(dp1199\ng5\nI11\nsba(i__main__\nNode\np1200\n(dp1201\ng5\nI11\nsba(i__main__\nNode\np1202\n(dp1203\ng5\nI11\nsba(i__main__\nNode\np1204\n(dp1205\ng5\nI11\nsba(i__main__\nNode\np1206\n(dp1207\ng5\nI11\nsba(i__main__\nNode\np1208\n(dp1209\ng5\nI11\nsba(i__main__\nNode\np1210\n(dp1211\ng5\nI11\nsba(i__main__\nNode\np1212\n(dp1213\ng5\nI12\nsba(i__main__\nNode\np1214\n(dp1215\ng5\nI12\nsba(i__main__\nNode\np1216\n(dp1217\ng5\nI12\nsba(i__main__\nNode\np1218\n(dp1219\ng5\nI15\nsba(i__main__\nNode\np1220\n(dp1221\ng5\nI12\nsbaa(lp1222\n(i__main__\nNode\np1223\n(dp1224\ng5\nI12\nsba(i__main__\nNode\np1225\n(dp1226\ng5\nI11\nsba(i__main__\nNode\np1227\n(dp1228\ng5\nI11\nsba(i__main__\nNode\np1229\n(dp1230\ng5\nI11\nsba(i__main__\nNode\np1231\n(dp1232\ng5\nI11\nsba(i__main__\nNode\np1233\n(dp1234\ng5\nI11\nsba(i__main__\nNode\np1235\n(dp1236\ng5\nI11\nsba(i__main__\nNode\np1237\n(dp1238\ng5\nI11\nsba(i__main__\nNode\np1239\n(dp1240\ng5\nI12\nsba(i__main__\nNode\np1241\n(dp1242\ng5\nI11\nsba(i__main__\nNode\np1243\n(dp1244\ng5\nI15\nsba(i__main__\nNode\np1245\n(dp1246\ng5\nI11\nsba(i__main__\nNode\np1247\n(dp1248\ng5\nI12\nsbaa(lp1249\n(i__main__\nNode\np1250\n(dp1251\ng5\nI12\nsba(i__main__\nNode\np1252\n(dp1253\ng5\nI11\nsba(i__main__\nNode\np1254\n(dp1255\ng5\nI11\nsba(i__main__\nNode\np1256\n(dp1257\ng5\nI11\nsba(i__main__\nNode\np1258\n(dp1259\ng5\nI11\nsba(i__main__\nNode\np1260\n(dp1261\ng5\nI11\nsba(i__main__\nNode\np1262\n(dp1263\ng5\nI11\nsba(i__main__\nNode\np1264\n(dp1265\ng5\nI11\nsba(i__main__\nNode\np1266\n(dp1267\ng5\nI12\nsba(i__main__\nNode\np1268\n(dp1269\ng5\nI11\nsba(i__main__\nNode\np1270\n(dp1271\ng5\nI12\nsba(i__main__\nNode\np1272\n(dp1273\ng5\nI11\nsba(i__main__\nNode\np1274\n(dp1275\ng5\nI12\nsbaa(lp1276\n(i__main__\nNode\np1277\n(dp1278\ng5\nI12\nsba(i__main__\nNode\np1279\n(dp1280\ng5\nI12\nsba(i__main__\nNode\np1281\n(dp1282\ng5\nI12\nsba(i__main__\nNode\np1283\n(dp1284\ng5\nI12\nsba(i__main__\nNode\np1285\n(dp1286\ng5\nI12\nsba(i__main__\nNode\np1287\n(dp1288\ng5\nI12\nsba(i__main__\nNode\np1289\n(dp1290\ng5\nI12\nsba(i__main__\nNode\np1291\n(dp1292\ng5\nI12\nsba(i__main__\nNode\np1293\n(dp1294\ng5\nI12\nsba(i__main__\nNode\np1295\n(dp1296\ng5\nI11\nsba(i__main__\nNode\np1297\n(dp1298\ng5\nI12\nsba(i__main__\nNode\np1299\n(dp1300\ng5\nI11\nsba(i__main__\nNode\np1301\n(dp1302\ng5\nI12\nsbaa(lp1303\n(i__main__\nNode\np1304\n(dp1305\ng5\nI12\nsba(i__main__\nNode\np1306\n(dp1307\ng5\nI11\nsba(i__main__\nNode\np1308\n(dp1309\ng5\nI15\nsba(i__main__\nNode\np1310\n(dp1311\ng5\nI11\nsba(i__main__\nNode\np1312\n(dp1313\ng5\nI11\nsba(i__main__\nNode\np1314\n(dp1315\ng5\nI12\nsba(i__main__\nNode\np1316\n(dp1317\ng5\nI11\nsba(i__main__\nNode\np1318\n(dp1319\ng5\nI11\nsba(i__main__\nNode\np1320\n(dp1321\ng5\nI15\nsba(i__main__\nNode\np1322\n(dp1323\ng5\nI11\nsba(i__main__\nNode\np1324\n(dp1325\ng5\nI12\nsba(i__main__\nNode\np1326\n(dp1327\ng5\nI11\nsba(i__main__\nNode\np1328\n(dp1329\ng5\nI12\nsbaa(lp1330\n(i__main__\nNode\np1331\n(dp1332\ng5\nI12\nsba(i__main__\nNode\np1333\n(dp1334\ng5\nI11\nsba(i__main__\nNode\np1335\n(dp1336\ng5\nI12\nsba(i__main__\nNode\np1337\n(dp1338\ng5\nI11\nsba(i__main__\nNode\np1339\n(dp1340\ng5\nI11\nsba(i__main__\nNode\np1341\n(dp1342\ng5\nI12\nsba(i__main__\nNode\np1343\n(dp1344\ng5\nI11\nsba(i__main__\nNode\np1345\n(dp1346\ng5\nI11\nsba(i__main__\nNode\np1347\n(dp1348\ng5\nI12\nsba(i__main__\nNode\np1349\n(dp1350\ng5\nI15\nsba(i__main__\nNode\np1351\n(dp1352\ng5\nI12\nsba(i__main__\nNode\np1353\n(dp1354\ng5\nI12\nsba(i__main__\nNode\np1355\n(dp1356\ng5\nI12\nsbaa(lp1357\n(i__main__\nNode\np1358\n(dp1359\ng5\nI12\nsba(i__main__\nNode\np1360\n(dp1361\ng5\nI11\nsba(i__main__\nNode\np1362\n(dp1363\ng5\nI12\nsba(i__main__\nNode\np1364\n(dp1365\ng5\nI11\nsba(i__main__\nNode\np1366\n(dp1367\ng5\nI11\nsba(i__main__\nNode\np1368\n(dp1369\ng5\nI15\nsba(i__main__\nNode\np1370\n(dp1371\ng5\nI11\nsba(i__main__\nNode\np1372\n(dp1373\ng5\nI11\nsba(i__main__\nNode\np1374\n(dp1375\ng5\nI12\nsba(i__main__\nNode\np1376\n(dp1377\ng5\nI11\nsba(i__main__\nNode\np1378\n(dp1379\ng5\nI11\nsba(i__main__\nNode\np1380\n(dp1381\ng5\nI11\nsba(i__main__\nNode\np1382\n(dp1383\ng5\nI12\nsbaa(lp1384\n(i__main__\nNode\np1385\n(dp1386\ng5\nI12\nsba(i__main__\nNode\np1387\n(dp1388\ng5\nI12\nsba(i__main__\nNode\np1389\n(dp1390\ng5\nI12\nsba(i__main__\nNode\np1391\n(dp1392\ng5\nI12\nsba(i__main__\nNode\np1393\n(dp1394\ng5\nI12\nsba(i__main__\nNode\np1395\n(dp1396\ng5\nI12\nsba(i__main__\nNode\np1397\n(dp1398\ng5\nI12\nsba(i__main__\nNode\np1399\n(dp1400\ng5\nI12\nsba(i__main__\nNode\np1401\n(dp1402\ng5\nI12\nsba(i__main__\nNode\np1403\n(dp1404\ng5\nI12\nsba(i__main__\nNode\np1405\n(dp1406\ng5\nI12\nsba(i__main__\nNode\np1407\n(dp1408\ng5\nI12\nsba(i__main__\nNode\np1409\n(dp1410\ng5\nI12\nsbaasI4\n(lp1411\n(lp1412\n(i__main__\nNode\np1413\n(dp1414\ng5\nI12\nsba(i__main__\nNode\np1415\n(dp1416\ng5\nI12\nsba(i__main__\nNode\np1417\n(dp1418\ng5\nI12\nsba(i__main__\nNode\np1419\n(dp1420\ng5\nI12\nsba(i__main__\nNode\np1421\n(dp1422\ng5\nI12\nsba(i__main__\nNode\np1423\n(dp1424\ng5\nI12\nsba(i__main__\nNode\np1425\n(dp1426\ng5\nI12\nsba(i__main__\nNode\np1427\n(dp1428\ng5\nI12\nsba(i__main__\nNode\np1429\n(dp1430\ng5\nI12\nsba(i__main__\nNode\np1431\n(dp1432\ng5\nI12\nsba(i__main__\nNode\np1433\n(dp1434\ng5\nI12\nsba(i__main__\nNode\np1435\n(dp1436\ng5\nI12\nsba(i__main__\nNode\np1437\n(dp1438\ng5\nI12\nsbaa(lp1439\n(i__main__\nNode\np1440\n(dp1441\ng5\nI12\nsba(i__main__\nNode\np1442\n(dp1443\ng5\nI11\nsba(i__main__\nNode\np1444\n(dp1445\ng5\nI11\nsba(i__main__\nNode\np1446\n(dp1447\ng5\nI12\nsba(i__main__\nNode\np1448\n(dp1449\ng5\nI11\nsba(i__main__\nNode\np1450\n(dp1451\ng5\nI11\nsba(i__main__\nNode\np1452\n(dp1453\ng5\nI11\nsba(i__main__\nNode\np1454\n(dp1455\ng5\nI15\nsba(i__main__\nNode\np1456\n(dp1457\ng5\nI11\nsba(i__main__\nNode\np1458\n(dp1459\ng5\nI11\nsba(i__main__\nNode\np1460\n(dp1461\ng5\nI11\nsba(i__main__\nNode\np1462\n(dp1463\ng5\nI14\nsg387\nI1\nsba(i__main__\nNode\np1464\n(dp1465\ng5\nI12\nsbaa(lp1466\n(i__main__\nNode\np1467\n(dp1468\ng5\nI12\nsba(i__main__\nNode\np1469\n(dp1470\ng5\nI11\nsba(i__main__\nNode\np1471\n(dp1472\ng5\nI11\nsba(i__main__\nNode\np1473\n(dp1474\ng5\nI12\nsba(i__main__\nNode\np1475\n(dp1476\ng5\nI11\nsba(i__main__\nNode\np1477\n(dp1478\ng5\nI11\nsba(i__main__\nNode\np1479\n(dp1480\ng5\nI11\nsba(i__main__\nNode\np1481\n(dp1482\ng5\nI12\nsba(i__main__\nNode\np1483\n(dp1484\ng5\nI12\nsba(i__main__\nNode\np1485\n(dp1486\ng5\nI12\nsba(i__main__\nNode\np1487\n(dp1488\ng5\nI15\nsba(i__main__\nNode\np1489\n(dp1490\ng5\nI12\nsba(i__main__\nNode\np1491\n(dp1492\ng5\nI12\nsbaa(lp1493\n(i__main__\nNode\np1494\n(dp1495\ng5\nI12\nsba(i__main__\nNode\np1496\n(dp1497\ng5\nI15\nsba(i__main__\nNode\np1498\n(dp1499\ng5\nI12\nsba(i__main__\nNode\np1500\n(dp1501\ng5\nI12\nsba(i__main__\nNode\np1502\n(dp1503\ng5\nI15\nsba(i__main__\nNode\np1504\n(dp1505\ng5\nI12\nsba(i__main__\nNode\np1506\n(dp1507\ng5\nI12\nsba(i__main__\nNode\np1508\n(dp1509\ng5\nI12\nsba(i__main__\nNode\np1510\n(dp1511\ng5\nI11\nsba(i__main__\nNode\np1512\n(dp1513\ng5\nI12\nsba(i__main__\nNode\np1514\n(dp1515\ng5\nI11\nsba(i__main__\nNode\np1516\n(dp1517\ng5\nI11\nsba(i__main__\nNode\np1518\n(dp1519\ng5\nI12\nsbaa(lp1520\n(i__main__\nNode\np1521\n(dp1522\ng5\nI12\nsba(i__main__\nNode\np1523\n(dp1524\ng5\nI11\nsba(i__main__\nNode\np1525\n(dp1526\ng5\nI11\nsba(i__main__\nNode\np1527\n(dp1528\ng5\nI12\nsba(i__main__\nNode\np1529\n(dp1530\ng5\nI11\nsba(i__main__\nNode\np1531\n(dp1532\ng5\nI12\nsba(i__main__\nNode\np1533\n(dp1534\ng5\nI11\nsba(i__main__\nNode\np1535\n(dp1536\ng5\nI12\nsba(i__main__\nNode\np1537\n(dp1538\ng5\nI11\nsba(i__main__\nNode\np1539\n(dp1540\ng5\nI12\nsba(i__main__\nNode\np1541\n(dp1542\ng5\nI11\nsba(i__main__\nNode\np1543\n(dp1544\ng5\nI11\nsba(i__main__\nNode\np1545\n(dp1546\ng5\nI12\nsbaa(lp1547\n(i__main__\nNode\np1548\n(dp1549\ng5\nI12\nsba(i__main__\nNode\np1550\n(dp1551\ng5\nI11\nsba(i__main__\nNode\np1552\n(dp1553\ng5\nI11\nsba(i__main__\nNode\np1554\n(dp1555\ng5\nI12\nsba(i__main__\nNode\np1556\n(dp1557\ng5\nI11\nsba(i__main__\nNode\np1558\n(dp1559\ng5\nI12\nsba(i__main__\nNode\np1560\n(dp1561\ng5\nI11\nsba(i__main__\nNode\np1562\n(dp1563\ng5\nI15\nsba(i__main__\nNode\np1564\n(dp1565\ng5\nI11\nsba(i__main__\nNode\np1566\n(dp1567\ng5\nI15\nsba(i__main__\nNode\np1568\n(dp1569\ng5\nI11\nsba(i__main__\nNode\np1570\n(dp1571\ng5\nI11\nsba(i__main__\nNode\np1572\n(dp1573\ng5\nI12\nsbaa(lp1574\n(i__main__\nNode\np1575\n(dp1576\ng5\nI12\nsba(i__main__\nNode\np1577\n(dp1578\ng5\nI11\nsba(i__main__\nNode\np1579\n(dp1580\ng5\nI11\nsba(i__main__\nNode\np1581\n(dp1582\ng5\nI15\nsba(i__main__\nNode\np1583\n(dp1584\ng5\nI11\nsba(i__main__\nNode\np1585\n(dp1586\ng5\nI12\nsba(i__main__\nNode\np1587\n(dp1588\ng5\nI11\nsba(i__main__\nNode\np1589\n(dp1590\ng5\nI12\nsba(i__main__\nNode\np1591\n(dp1592\ng5\nI15\nsba(i__main__\nNode\np1593\n(dp1594\ng5\nI12\nsba(i__main__\nNode\np1595\n(dp1596\ng5\nI15\nsba(i__main__\nNode\np1597\n(dp1598\ng5\nI12\nsba(i__main__\nNode\np1599\n(dp1600\ng5\nI12\nsbaa(lp1601\n(i__main__\nNode\np1602\n(dp1603\ng5\nI12\nsba(i__main__\nNode\np1604\n(dp1605\ng5\nI15\nsba(i__main__\nNode\np1606\n(dp1607\ng5\nI12\nsba(i__main__\nNode\np1608\n(dp1609\ng5\nI12\nsba(i__main__\nNode\np1610\n(dp1611\ng5\nI12\nsba(i__main__\nNode\np1612\n(dp1613\ng5\nI12\nsba(i__main__\nNode\np1614\n(dp1615\ng5\nI12\nsba(i__main__\nNode\np1616\n(dp1617\ng5\nI12\nsba(i__main__\nNode\np1618\n(dp1619\ng5\nI11\nsba(i__main__\nNode\np1620\n(dp1621\ng5\nI12\nsba(i__main__\nNode\np1622\n(dp1623\ng5\nI11\nsba(i__main__\nNode\np1624\n(dp1625\ng5\nI11\nsba(i__main__\nNode\np1626\n(dp1627\ng5\nI12\nsbaa(lp1628\n(i__main__\nNode\np1629\n(dp1630\ng5\nI12\nsba(i__main__\nNode\np1631\n(dp1632\ng5\nI11\nsba(i__main__\nNode\np1633\n(dp1634\ng5\nI11\nsba(i__main__\nNode\np1635\n(dp1636\ng5\nI12\nsba(i__main__\nNode\np1637\n(dp1638\ng5\nI11\nsba(i__main__\nNode\np1639\n(dp1640\ng5\nI11\nsba(i__main__\nNode\np1641\n(dp1642\ng5\nI11\nsba(i__main__\nNode\np1643\n(dp1644\ng5\nI12\nsba(i__main__\nNode\np1645\n(dp1646\ng5\nI11\nsba(i__main__\nNode\np1647\n(dp1648\ng5\nI12\nsba(i__main__\nNode\np1649\n(dp1650\ng5\nI12\nsba(i__main__\nNode\np1651\n(dp1652\ng5\nI12\nsba(i__main__\nNode\np1653\n(dp1654\ng5\nI12\nsbaa(lp1655\n(i__main__\nNode\np1656\n(dp1657\ng5\nI12\nsba(i__main__\nNode\np1658\n(dp1659\ng5\nI11\nsba(i__main__\nNode\np1660\n(dp1661\ng5\nI11\nsba(i__main__\nNode\np1662\n(dp1663\ng5\nI12\nsba(i__main__\nNode\np1664\n(dp1665\ng5\nI11\nsba(i__main__\nNode\np1666\n(dp1667\ng5\nI11\nsba(i__main__\nNode\np1668\n(dp1669\ng5\nI11\nsba(i__main__\nNode\np1670\n(dp1671\ng5\nI12\nsba(i__main__\nNode\np1672\n(dp1673\ng5\nI11\nsba(i__main__\nNode\np1674\n(dp1675\ng5\nI12\nsba(i__main__\nNode\np1676\n(dp1677\ng5\nI11\nsba(i__main__\nNode\np1678\n(dp1679\ng5\nI11\nsba(i__main__\nNode\np1680\n(dp1681\ng5\nI12\nsbaa(lp1682\n(i__main__\nNode\np1683\n(dp1684\ng5\nI12\nsba(i__main__\nNode\np1685\n(dp1686\ng5\nI12\nsba(i__main__\nNode\np1687\n(dp1688\ng5\nI12\nsba(i__main__\nNode\np1689\n(dp1690\ng5\nI12\nsba(i__main__\nNode\np1691\n(dp1692\ng5\nI12\nsba(i__main__\nNode\np1693\n(dp1694\ng5\nI12\nsba(i__main__\nNode\np1695\n(dp1696\ng5\nI15\nsba(i__main__\nNode\np1697\n(dp1698\ng5\nI12\nsba(i__main__\nNode\np1699\n(dp1700\ng5\nI11\nsba(i__main__\nNode\np1701\n(dp1702\ng5\nI15\nsba(i__main__\nNode\np1703\n(dp1704\ng5\nI11\nsba(i__main__\nNode\np1705\n(dp1706\ng5\nI11\nsba(i__main__\nNode\np1707\n(dp1708\ng5\nI12\nsbaa(lp1709\n(i__main__\nNode\np1710\n(dp1711\ng5\nI12\nsba(i__main__\nNode\np1712\n(dp1713\ng5\nI14\nsg387\nI2\nsba(i__main__\nNode\np1714\n(dp1715\ng5\nI11\nsba(i__main__\nNode\np1716\n(dp1717\ng5\nI11\nsba(i__main__\nNode\np1718\n(dp1719\ng5\nI11\nsba(i__main__\nNode\np1720\n(dp1721\ng5\nI11\nsba(i__main__\nNode\np1722\n(dp1723\ng5\nI11\nsba(i__main__\nNode\np1724\n(dp1725\ng5\nI15\nsba(i__main__\nNode\np1726\n(dp1727\ng5\nI11\nsba(i__main__\nNode\np1728\n(dp1729\ng5\nI12\nsba(i__main__\nNode\np1730\n(dp1731\ng5\nI11\nsba(i__main__\nNode\np1732\n(dp1733\ng5\nI11\nsba(i__main__\nNode\np1734\n(dp1735\ng5\nI12\nsbaa(lp1736\n(i__main__\nNode\np1737\n(dp1738\ng5\nI12\nsba(i__main__\nNode\np1739\n(dp1740\ng5\nI12\nsba(i__main__\nNode\np1741\n(dp1742\ng5\nI12\nsba(i__main__\nNode\np1743\n(dp1744\ng5\nI12\nsba(i__main__\nNode\np1745\n(dp1746\ng5\nI12\nsba(i__main__\nNode\np1747\n(dp1748\ng5\nI12\nsba(i__main__\nNode\np1749\n(dp1750\ng5\nI12\nsba(i__main__\nNode\np1751\n(dp1752\ng5\nI12\nsba(i__main__\nNode\np1753\n(dp1754\ng5\nI12\nsba(i__main__\nNode\np1755\n(dp1756\ng5\nI12\nsba(i__main__\nNode\np1757\n(dp1758\ng5\nI12\nsba(i__main__\nNode\np1759\n(dp1760\ng5\nI12\nsba(i__main__\nNode\np1761\n(dp1762\ng5\nI12\nsbaasI5\n(lp1763\n(lp1764\n(i__main__\nNode\np1765\n(dp1766\ng5\nI12\nsba(i__main__\nNode\np1767\n(dp1768\ng5\nI12\nsba(i__main__\nNode\np1769\n(dp1770\ng5\nI12\nsba(i__main__\nNode\np1771\n(dp1772\ng5\nI12\nsba(i__main__\nNode\np1773\n(dp1774\ng5\nI12\nsba(i__main__\nNode\np1775\n(dp1776\ng5\nI12\nsba(i__main__\nNode\np1777\n(dp1778\ng5\nI12\nsba(i__main__\nNode\np1779\n(dp1780\ng5\nI12\nsba(i__main__\nNode\np1781\n(dp1782\ng5\nI12\nsba(i__main__\nNode\np1783\n(dp1784\ng5\nI12\nsba(i__main__\nNode\np1785\n(dp1786\ng5\nI12\nsba(i__main__\nNode\np1787\n(dp1788\ng5\nI12\nsba(i__main__\nNode\np1789\n(dp1790\ng5\nI12\nsbaa(lp1791\n(i__main__\nNode\np1792\n(dp1793\ng5\nI12\nsba(i__main__\nNode\np1794\n(dp1795\ng5\nI11\nsba(i__main__\nNode\np1796\n(dp1797\ng5\nI11\nsba(i__main__\nNode\np1798\n(dp1799\ng5\nI11\nsba(i__main__\nNode\np1800\n(dp1801\ng5\nI15\nsba(i__main__\nNode\np1802\n(dp1803\ng5\nI11\nsba(i__main__\nNode\np1804\n(dp1805\ng5\nI12\nsba(i__main__\nNode\np1806\n(dp1807\ng5\nI11\nsba(i__main__\nNode\np1808\n(dp1809\ng5\nI15\nsba(i__main__\nNode\np1810\n(dp1811\ng5\nI11\nsba(i__main__\nNode\np1812\n(dp1813\ng5\nI11\nsba(i__main__\nNode\np1814\n(dp1815\ng5\nI14\nsg387\nI2\nsba(i__main__\nNode\np1816\n(dp1817\ng5\nI12\nsbaa(lp1818\n(i__main__\nNode\np1819\n(dp1820\ng5\nI12\nsba(i__main__\nNode\np1821\n(dp1822\ng5\nI11\nsba(i__main__\nNode\np1823\n(dp1824\ng5\nI11\nsba(i__main__\nNode\np1825\n(dp1826\ng5\nI11\nsba(i__main__\nNode\np1827\n(dp1828\ng5\nI12\nsba(i__main__\nNode\np1829\n(dp1830\ng5\nI11\nsba(i__main__\nNode\np1831\n(dp1832\ng5\nI12\nsba(i__main__\nNode\np1833\n(dp1834\ng5\nI11\nsba(i__main__\nNode\np1835\n(dp1836\ng5\nI12\nsba(i__main__\nNode\np1837\n(dp1838\ng5\nI11\nsba(i__main__\nNode\np1839\n(dp1840\ng5\nI11\nsba(i__main__\nNode\np1841\n(dp1842\ng5\nI11\nsba(i__main__\nNode\np1843\n(dp1844\ng5\nI12\nsbaa(lp1845\n(i__main__\nNode\np1846\n(dp1847\ng5\nI12\nsba(i__main__\nNode\np1848\n(dp1849\ng5\nI15\nsba(i__main__\nNode\np1850\n(dp1851\ng5\nI12\nsba(i__main__\nNode\np1852\n(dp1853\ng5\nI12\nsba(i__main__\nNode\np1854\n(dp1855\ng5\nI12\nsba(i__main__\nNode\np1856\n(dp1857\ng5\nI11\nsba(i__main__\nNode\np1858\n(dp1859\ng5\nI12\nsba(i__main__\nNode\np1860\n(dp1861\ng5\nI11\nsba(i__main__\nNode\np1862\n(dp1863\ng5\nI12\nsba(i__main__\nNode\np1864\n(dp1865\ng5\nI12\nsba(i__main__\nNode\np1866\n(dp1867\ng5\nI12\nsba(i__main__\nNode\np1868\n(dp1869\ng5\nI15\nsba(i__main__\nNode\np1870\n(dp1871\ng5\nI12\nsbaa(lp1872\n(i__main__\nNode\np1873\n(dp1874\ng5\nI12\nsba(i__main__\nNode\np1875\n(dp1876\ng5\nI11\nsba(i__main__\nNode\np1877\n(dp1878\ng5\nI11\nsba(i__main__\nNode\np1879\n(dp1880\ng5\nI11\nsba(i__main__\nNode\np1881\n(dp1882\ng5\nI12\nsba(i__main__\nNode\np1883\n(dp1884\ng5\nI11\nsba(i__main__\nNode\np1885\n(dp1886\ng5\nI15\nsba(i__main__\nNode\np1887\n(dp1888\ng5\nI11\nsba(i__main__\nNode\np1889\n(dp1890\ng5\nI12\nsba(i__main__\nNode\np1891\n(dp1892\ng5\nI11\nsba(i__main__\nNode\np1893\n(dp1894\ng5\nI12\nsba(i__main__\nNode\np1895\n(dp1896\ng5\nI11\nsba(i__main__\nNode\np1897\n(dp1898\ng5\nI12\nsbaa(lp1899\n(i__main__\nNode\np1900\n(dp1901\ng5\nI12\nsba(i__main__\nNode\np1902\n(dp1903\ng5\nI11\nsba(i__main__\nNode\np1904\n(dp1905\ng5\nI11\nsba(i__main__\nNode\np1906\n(dp1907\ng5\nI11\nsba(i__main__\nNode\np1908\n(dp1909\ng5\nI12\nsba(i__main__\nNode\np1910\n(dp1911\ng5\nI11\nsba(i__main__\nNode\np1912\n(dp1913\ng5\nI12\nsba(i__main__\nNode\np1914\n(dp1915\ng5\nI11\nsba(i__main__\nNode\np1916\n(dp1917\ng5\nI12\nsba(i__main__\nNode\np1918\n(dp1919\ng5\nI11\nsba(i__main__\nNode\np1920\n(dp1921\ng5\nI12\nsba(i__main__\nNode\np1922\n(dp1923\ng5\nI11\nsba(i__main__\nNode\np1924\n(dp1925\ng5\nI12\nsbaa(lp1926\n(i__main__\nNode\np1927\n(dp1928\ng5\nI12\nsba(i__main__\nNode\np1929\n(dp1930\ng5\nI15\nsba(i__main__\nNode\np1931\n(dp1932\ng5\nI12\nsba(i__main__\nNode\np1933\n(dp1934\ng5\nI12\nsba(i__main__\nNode\np1935\n(dp1936\ng5\nI12\nsba(i__main__\nNode\np1937\n(dp1938\ng5\nI11\nsba(i__main__\nNode\np1939\n(dp1940\ng5\nI12\nsba(i__main__\nNode\np1941\n(dp1942\ng5\nI11\nsba(i__main__\nNode\np1943\n(dp1944\ng5\nI12\nsba(i__main__\nNode\np1945\n(dp1946\ng5\nI11\nsba(i__main__\nNode\np1947\n(dp1948\ng5\nI12\nsba(i__main__\nNode\np1949\n(dp1950\ng5\nI11\nsba(i__main__\nNode\np1951\n(dp1952\ng5\nI12\nsbaa(lp1953\n(i__main__\nNode\np1954\n(dp1955\ng5\nI12\nsba(i__main__\nNode\np1956\n(dp1957\ng5\nI11\nsba(i__main__\nNode\np1958\n(dp1959\ng5\nI12\nsba(i__main__\nNode\np1960\n(dp1961\ng5\nI11\nsba(i__main__\nNode\np1962\n(dp1963\ng5\nI12\nsba(i__main__\nNode\np1964\n(dp1965\ng5\nI11\nsba(i__main__\nNode\np1966\n(dp1967\ng5\nI12\nsba(i__main__\nNode\np1968\n(dp1969\ng5\nI11\nsba(i__main__\nNode\np1970\n(dp1971\ng5\nI12\nsba(i__main__\nNode\np1972\n(dp1973\ng5\nI11\nsba(i__main__\nNode\np1974\n(dp1975\ng5\nI12\nsba(i__main__\nNode\np1976\n(dp1977\ng5\nI11\nsba(i__main__\nNode\np1978\n(dp1979\ng5\nI12\nsbaa(lp1980\n(i__main__\nNode\np1981\n(dp1982\ng5\nI12\nsba(i__main__\nNode\np1983\n(dp1984\ng5\nI11\nsba(i__main__\nNode\np1985\n(dp1986\ng5\nI12\nsba(i__main__\nNode\np1987\n(dp1988\ng5\nI11\nsba(i__main__\nNode\np1989\n(dp1990\ng5\nI12\nsba(i__main__\nNode\np1991\n(dp1992\ng5\nI11\nsba(i__main__\nNode\np1993\n(dp1994\ng5\nI12\nsba(i__main__\nNode\np1995\n(dp1996\ng5\nI11\nsba(i__main__\nNode\np1997\n(dp1998\ng5\nI15\nsba(i__main__\nNode\np1999\n(dp2000\ng5\nI11\nsba(i__main__\nNode\np2001\n(dp2002\ng5\nI12\nsba(i__main__\nNode\np2003\n(dp2004\ng5\nI11\nsba(i__main__\nNode\np2005\n(dp2006\ng5\nI12\nsbaa(lp2007\n(i__main__\nNode\np2008\n(dp2009\ng5\nI12\nsba(i__main__\nNode\np2010\n(dp2011\ng5\nI11\nsba(i__main__\nNode\np2012\n(dp2013\ng5\nI12\nsba(i__main__\nNode\np2014\n(dp2015\ng5\nI11\nsba(i__main__\nNode\np2016\n(dp2017\ng5\nI15\nsba(i__main__\nNode\np2018\n(dp2019\ng5\nI11\nsba(i__main__\nNode\np2020\n(dp2021\ng5\nI12\nsba(i__main__\nNode\np2022\n(dp2023\ng5\nI11\nsba(i__main__\nNode\np2024\n(dp2025\ng5\nI12\nsba(i__main__\nNode\np2026\n(dp2027\ng5\nI12\nsba(i__main__\nNode\np2028\n(dp2029\ng5\nI12\nsba(i__main__\nNode\np2030\n(dp2031\ng5\nI12\nsba(i__main__\nNode\np2032\n(dp2033\ng5\nI12\nsbaa(lp2034\n(i__main__\nNode\np2035\n(dp2036\ng5\nI12\nsba(i__main__\nNode\np2037\n(dp2038\ng5\nI11\nsba(i__main__\nNode\np2039\n(dp2040\ng5\nI12\nsba(i__main__\nNode\np2041\n(dp2042\ng5\nI11\nsba(i__main__\nNode\np2043\n(dp2044\ng5\nI12\nsba(i__main__\nNode\np2045\n(dp2046\ng5\nI11\nsba(i__main__\nNode\np2047\n(dp2048\ng5\nI12\nsba(i__main__\nNode\np2049\n(dp2050\ng5\nI11\nsba(i__main__\nNode\np2051\n(dp2052\ng5\nI15\nsba(i__main__\nNode\np2053\n(dp2054\ng5\nI11\nsba(i__main__\nNode\np2055\n(dp2056\ng5\nI11\nsba(i__main__\nNode\np2057\n(dp2058\ng5\nI11\nsba(i__main__\nNode\np2059\n(dp2060\ng5\nI12\nsbaa(lp2061\n(i__main__\nNode\np2062\n(dp2063\ng5\nI12\nsba(i__main__\nNode\np2064\n(dp2065\ng5\nI11\nsba(i__main__\nNode\np2066\n(dp2067\ng5\nI12\nsba(i__main__\nNode\np2068\n(dp2069\ng5\nI11\nsba(i__main__\nNode\np2070\n(dp2071\ng5\nI12\nsba(i__main__\nNode\np2072\n(dp2073\ng5\nI14\nsg387\nI1\nsba(i__main__\nNode\np2074\n(dp2075\ng5\nI12\nsba(i__main__\nNode\np2076\n(dp2077\ng5\nI11\nsba(i__main__\nNode\np2078\n(dp2079\ng5\nI12\nsba(i__main__\nNode\np2080\n(dp2081\ng5\nI11\nsba(i__main__\nNode\np2082\n(dp2083\ng5\nI11\nsba(i__main__\nNode\np2084\n(dp2085\ng5\nI11\nsba(i__main__\nNode\np2086\n(dp2087\ng5\nI12\nsbaa(lp2088\n(i__main__\nNode\np2089\n(dp2090\ng5\nI12\nsba(i__main__\nNode\np2091\n(dp2092\ng5\nI12\nsba(i__main__\nNode\np2093\n(dp2094\ng5\nI12\nsba(i__main__\nNode\np2095\n(dp2096\ng5\nI12\nsba(i__main__\nNode\np2097\n(dp2098\ng5\nI12\nsba(i__main__\nNode\np2099\n(dp2100\ng5\nI12\nsba(i__main__\nNode\np2101\n(dp2102\ng5\nI12\nsba(i__main__\nNode\np2103\n(dp2104\ng5\nI12\nsba(i__main__\nNode\np2105\n(dp2106\ng5\nI12\nsba(i__main__\nNode\np2107\n(dp2108\ng5\nI12\nsba(i__main__\nNode\np2109\n(dp2110\ng5\nI12\nsba(i__main__\nNode\np2111\n(dp2112\ng5\nI12\nsba(i__main__\nNode\np2113\n(dp2114\ng5\nI12\nsbaasI6\n(lp2115\n(lp2116\n(i__main__\nNode\np2117\n(dp2118\ng5\nI12\nsba(i__main__\nNode\np2119\n(dp2120\ng5\nI12\nsba(i__main__\nNode\np2121\n(dp2122\ng5\nI12\nsba(i__main__\nNode\np2123\n(dp2124\ng5\nI12\nsba(i__main__\nNode\np2125\n(dp2126\ng5\nI12\nsba(i__main__\nNode\np2127\n(dp2128\ng5\nI12\nsba(i__main__\nNode\np2129\n(dp2130\ng5\nI12\nsba(i__main__\nNode\np2131\n(dp2132\ng5\nI12\nsba(i__main__\nNode\np2133\n(dp2134\ng5\nI12\nsba(i__main__\nNode\np2135\n(dp2136\ng5\nI12\nsba(i__main__\nNode\np2137\n(dp2138\ng5\nI12\nsba(i__main__\nNode\np2139\n(dp2140\ng5\nI12\nsba(i__main__\nNode\np2141\n(dp2142\ng5\nI12\nsbaa(lp2143\n(i__main__\nNode\np2144\n(dp2145\ng5\nI12\nsba(i__main__\nNode\np2146\n(dp2147\ng5\nI11\nsba(i__main__\nNode\np2148\n(dp2149\ng5\nI11\nsba(i__main__\nNode\np2150\n(dp2151\ng5\nI11\nsba(i__main__\nNode\np2152\n(dp2153\ng5\nI11\nsba(i__main__\nNode\np2154\n(dp2155\ng5\nI11\nsba(i__main__\nNode\np2156\n(dp2157\ng5\nI11\nsba(i__main__\nNode\np2158\n(dp2159\ng5\nI11\nsba(i__main__\nNode\np2160\n(dp2161\ng5\nI15\nsba(i__main__\nNode\np2162\n(dp2163\ng5\nI11\nsba(i__main__\nNode\np2164\n(dp2165\ng5\nI12\nsba(i__main__\nNode\np2166\n(dp2167\ng5\nI11\nsba(i__main__\nNode\np2168\n(dp2169\ng5\nI12\nsbaa(lp2170\n(i__main__\nNode\np2171\n(dp2172\ng5\nI12\nsba(i__main__\nNode\np2173\n(dp2174\ng5\nI11\nsba(i__main__\nNode\np2175\n(dp2176\ng5\nI11\nsba(i__main__\nNode\np2177\n(dp2178\ng5\nI11\nsba(i__main__\nNode\np2179\n(dp2180\ng5\nI11\nsba(i__main__\nNode\np2181\n(dp2182\ng5\nI11\nsba(i__main__\nNode\np2183\n(dp2184\ng5\nI11\nsba(i__main__\nNode\np2185\n(dp2186\ng5\nI11\nsba(i__main__\nNode\np2187\n(dp2188\ng5\nI12\nsba(i__main__\nNode\np2189\n(dp2190\ng5\nI11\nsba(i__main__\nNode\np2191\n(dp2192\ng5\nI12\nsba(i__main__\nNode\np2193\n(dp2194\ng5\nI11\nsba(i__main__\nNode\np2195\n(dp2196\ng5\nI12\nsbaa(lp2197\n(i__main__\nNode\np2198\n(dp2199\ng5\nI12\nsba(i__main__\nNode\np2200\n(dp2201\ng5\nI11\nsba(i__main__\nNode\np2202\n(dp2203\ng5\nI11\nsba(i__main__\nNode\np2204\n(dp2205\ng5\nI11\nsba(i__main__\nNode\np2206\n(dp2207\ng5\nI11\nsba(i__main__\nNode\np2208\n(dp2209\ng5\nI11\nsba(i__main__\nNode\np2210\n(dp2211\ng5\nI11\nsba(i__main__\nNode\np2212\n(dp2213\ng5\nI11\nsba(i__main__\nNode\np2214\n(dp2215\ng5\nI12\nsba(i__main__\nNode\np2216\n(dp2217\ng5\nI11\nsba(i__main__\nNode\np2218\n(dp2219\ng5\nI15\nsba(i__main__\nNode\np2220\n(dp2221\ng5\nI11\nsba(i__main__\nNode\np2222\n(dp2223\ng5\nI12\nsbaa(lp2224\n(i__main__\nNode\np2225\n(dp2226\ng5\nI12\nsba(i__main__\nNode\np2227\n(dp2228\ng5\nI11\nsba(i__main__\nNode\np2229\n(dp2230\ng5\nI11\nsba(i__main__\nNode\np2231\n(dp2232\ng5\nI11\nsba(i__main__\nNode\np2233\n(dp2234\ng5\nI11\nsba(i__main__\nNode\np2235\n(dp2236\ng5\nI11\nsba(i__main__\nNode\np2237\n(dp2238\ng5\nI11\nsba(i__main__\nNode\np2239\n(dp2240\ng5\nI11\nsba(i__main__\nNode\np2241\n(dp2242\ng5\nI12\nsba(i__main__\nNode\np2243\n(dp2244\ng5\nI11\nsba(i__main__\nNode\np2245\n(dp2246\ng5\nI12\nsba(i__main__\nNode\np2247\n(dp2248\ng5\nI11\nsba(i__main__\nNode\np2249\n(dp2250\ng5\nI12\nsbaa(lp2251\n(i__main__\nNode\np2252\n(dp2253\ng5\nI12\nsba(i__main__\nNode\np2254\n(dp2255\ng5\nI11\nsba(i__main__\nNode\np2256\n(dp2257\ng5\nI11\nsba(i__main__\nNode\np2258\n(dp2259\ng5\nI11\nsba(i__main__\nNode\np2260\n(dp2261\ng5\nI11\nsba(i__main__\nNode\np2262\n(dp2263\ng5\nI11\nsba(i__main__\nNode\np2264\n(dp2265\ng5\nI11\nsba(i__main__\nNode\np2266\n(dp2267\ng5\nI11\nsba(i__main__\nNode\np2268\n(dp2269\ng5\nI12\nsba(i__main__\nNode\np2270\n(dp2271\ng5\nI11\nsba(i__main__\nNode\np2272\n(dp2273\ng5\nI12\nsba(i__main__\nNode\np2274\n(dp2275\ng5\nI11\nsba(i__main__\nNode\np2276\n(dp2277\ng5\nI12\nsbaa(lp2278\n(i__main__\nNode\np2279\n(dp2280\ng5\nI12\nsba(i__main__\nNode\np2281\n(dp2282\ng5\nI11\nsba(i__main__\nNode\np2283\n(dp2284\ng5\nI11\nsba(i__main__\nNode\np2285\n(dp2286\ng5\nI11\nsba(i__main__\nNode\np2287\n(dp2288\ng5\nI11\nsba(i__main__\nNode\np2289\n(dp2290\ng5\nI11\nsba(i__main__\nNode\np2291\n(dp2292\ng5\nI11\nsba(i__main__\nNode\np2293\n(dp2294\ng5\nI11\nsba(i__main__\nNode\np2295\n(dp2296\ng5\nI12\nsba(i__main__\nNode\np2297\n(dp2298\ng5\nI11\nsba(i__main__\nNode\np2299\n(dp2300\ng5\nI12\nsba(i__main__\nNode\np2301\n(dp2302\ng5\nI11\nsba(i__main__\nNode\np2303\n(dp2304\ng5\nI12\nsbaa(lp2305\n(i__main__\nNode\np2306\n(dp2307\ng5\nI12\nsba(i__main__\nNode\np2308\n(dp2309\ng5\nI11\nsba(i__main__\nNode\np2310\n(dp2311\ng5\nI11\nsba(i__main__\nNode\np2312\n(dp2313\ng5\nI11\nsba(i__main__\nNode\np2314\n(dp2315\ng5\nI11\nsba(i__main__\nNode\np2316\n(dp2317\ng5\nI11\nsba(i__main__\nNode\np2318\n(dp2319\ng5\nI11\nsba(i__main__\nNode\np2320\n(dp2321\ng5\nI11\nsba(i__main__\nNode\np2322\n(dp2323\ng5\nI12\nsba(i__main__\nNode\np2324\n(dp2325\ng5\nI11\nsba(i__main__\nNode\np2326\n(dp2327\ng5\nI12\nsba(i__main__\nNode\np2328\n(dp2329\ng5\nI11\nsba(i__main__\nNode\np2330\n(dp2331\ng5\nI12\nsbaa(lp2332\n(i__main__\nNode\np2333\n(dp2334\ng5\nI12\nsba(i__main__\nNode\np2335\n(dp2336\ng5\nI12\nsba(i__main__\nNode\np2337\n(dp2338\ng5\nI12\nsba(i__main__\nNode\np2339\n(dp2340\ng5\nI12\nsba(i__main__\nNode\np2341\n(dp2342\ng5\nI12\nsba(i__main__\nNode\np2343\n(dp2344\ng5\nI12\nsba(i__main__\nNode\np2345\n(dp2346\ng5\nI12\nsba(i__main__\nNode\np2347\n(dp2348\ng5\nI12\nsba(i__main__\nNode\np2349\n(dp2350\ng5\nI12\nsba(i__main__\nNode\np2351\n(dp2352\ng5\nI11\nsba(i__main__\nNode\np2353\n(dp2354\ng5\nI12\nsba(i__main__\nNode\np2355\n(dp2356\ng5\nI11\nsba(i__main__\nNode\np2357\n(dp2358\ng5\nI12\nsbaa(lp2359\n(i__main__\nNode\np2360\n(dp2361\ng5\nI12\nsba(i__main__\nNode\np2362\n(dp2363\ng5\nI11\nsba(i__main__\nNode\np2364\n(dp2365\ng5\nI12\nsba(i__main__\nNode\np2366\n(dp2367\ng5\nI11\nsba(i__main__\nNode\np2368\n(dp2369\ng5\nI15\nsba(i__main__\nNode\np2370\n(dp2371\ng5\nI11\nsba(i__main__\nNode\np2372\n(dp2373\ng5\nI11\nsba(i__main__\nNode\np2374\n(dp2375\ng5\nI15\nsba(i__main__\nNode\np2376\n(dp2377\ng5\nI11\nsba(i__main__\nNode\np2378\n(dp2379\ng5\nI11\nsba(i__main__\nNode\np2380\n(dp2381\ng5\nI12\nsba(i__main__\nNode\np2382\n(dp2383\ng5\nI11\nsba(i__main__\nNode\np2384\n(dp2385\ng5\nI12\nsbaa(lp2386\n(i__main__\nNode\np2387\n(dp2388\ng5\nI12\nsba(i__main__\nNode\np2389\n(dp2390\ng5\nI11\nsba(i__main__\nNode\np2391\n(dp2392\ng5\nI12\nsba(i__main__\nNode\np2393\n(dp2394\ng5\nI11\nsba(i__main__\nNode\np2395\n(dp2396\ng5\nI12\nsba(i__main__\nNode\np2397\n(dp2398\ng5\nI11\nsba(i__main__\nNode\np2399\n(dp2400\ng5\nI11\nsba(i__main__\nNode\np2401\n(dp2402\ng5\nI12\nsba(i__main__\nNode\np2403\n(dp2404\ng5\nI12\nsba(i__main__\nNode\np2405\n(dp2406\ng5\nI12\nsba(i__main__\nNode\np2407\n(dp2408\ng5\nI12\nsba(i__main__\nNode\np2409\n(dp2410\ng5\nI11\nsba(i__main__\nNode\np2411\n(dp2412\ng5\nI12\nsbaa(lp2413\n(i__main__\nNode\np2414\n(dp2415\ng5\nI12\nsba(i__main__\nNode\np2416\n(dp2417\ng5\nI11\nsba(i__main__\nNode\np2418\n(dp2419\ng5\nI15\nsba(i__main__\nNode\np2420\n(dp2421\ng5\nI11\nsba(i__main__\nNode\np2422\n(dp2423\ng5\nI12\nsba(i__main__\nNode\np2424\n(dp2425\ng5\nI14\nsg387\nI2\nsba(i__main__\nNode\np2426\n(dp2427\ng5\nI11\nsba(i__main__\nNode\np2428\n(dp2429\ng5\nI12\nsba(i__main__\nNode\np2430\n(dp2431\ng5\nI11\nsba(i__main__\nNode\np2432\n(dp2433\ng5\nI11\nsba(i__main__\nNode\np2434\n(dp2435\ng5\nI15\nsba(i__main__\nNode\np2436\n(dp2437\ng5\nI11\nsba(i__main__\nNode\np2438\n(dp2439\ng5\nI12\nsbaa(lp2440\n(i__main__\nNode\np2441\n(dp2442\ng5\nI12\nsba(i__main__\nNode\np2443\n(dp2444\ng5\nI12\nsba(i__main__\nNode\np2445\n(dp2446\ng5\nI12\nsba(i__main__\nNode\np2447\n(dp2448\ng5\nI12\nsba(i__main__\nNode\np2449\n(dp2450\ng5\nI12\nsba(i__main__\nNode\np2451\n(dp2452\ng5\nI12\nsba(i__main__\nNode\np2453\n(dp2454\ng5\nI12\nsba(i__main__\nNode\np2455\n(dp2456\ng5\nI12\nsba(i__main__\nNode\np2457\n(dp2458\ng5\nI12\nsba(i__main__\nNode\np2459\n(dp2460\ng5\nI12\nsba(i__main__\nNode\np2461\n(dp2462\ng5\nI12\nsba(i__main__\nNode\np2463\n(dp2464\ng5\nI12\nsba(i__main__\nNode\np2465\n(dp2466\ng5\nI12\nsbaas."
p2
sS'maze_map'
p3
S'(dp0\nI0\n(dp1\nI11\nc__builtin__\nset\np2\n((lp3\n(I0\nI5\nI5\ntp4\na(I0\nI10\nI4\ntp5\na(I0\nI5\nI7\ntp6\na(I0\nI10\nI6\ntp7\na(I0\nI2\nI1\ntp8\na(I0\nI5\nI1\ntp9\na(I0\nI7\nI10\ntp10\na(I0\nI10\nI8\ntp11\na(I0\nI2\nI3\ntp12\na(I0\nI4\nI10\ntp13\na(I0\nI5\nI3\ntp14\na(I0\nI7\nI8\ntp15\na(I0\nI10\nI10\ntp16\na(I0\nI2\nI5\ntp17\na(I0\nI4\nI8\ntp18\na(I0\nI7\nI6\ntp19\na(I0\nI1\nI8\ntp20\na(I0\nI2\nI7\ntp21\na(I0\nI7\nI4\ntp22\na(I0\nI9\nI1\ntp23\na(I0\nI1\nI10\ntp24\na(I0\nI8\nI10\ntp25\na(I0\nI7\nI2\ntp26\na(I0\nI9\nI3\ntp27\na(I0\nI4\nI2\ntp28\na(I0\nI8\nI8\ntp29\na(I0\nI9\nI5\ntp30\na(I0\nI8\nI6\ntp31\na(I0\nI9\nI7\ntp32\na(I0\nI4\nI6\ntp33\na(I0\nI6\nI9\ntp34\na(I0\nI8\nI4\ntp35\na(I0\nI9\nI9\ntp36\na(I0\nI11\nI2\ntp37\na(I0\nI1\nI2\ntp38\na(I0\nI3\nI11\ntp39\na(I0\nI4\nI4\ntp40\na(I0\nI6\nI11\ntp41\na(I0\nI8\nI2\ntp42\na(I0\nI9\nI11\ntp43\na(I0\nI1\nI4\ntp44\na(I0\nI3\nI9\ntp45\na(I0\nI6\nI5\ntp46\na(I0\nI11\nI6\ntp47\na(I0\nI1\nI6\ntp48\na(I0\nI6\nI7\ntp49\na(I0\nI11\nI4\ntp50\na(I0\nI6\nI1\ntp51\na(I0\nI11\nI10\ntp52\na(I0\nI3\nI3\ntp53\na(I0\nI6\nI3\ntp54\na(I0\nI11\nI8\ntp55\na(I0\nI3\nI1\ntp56\na(I0\nI3\nI7\ntp57\na(I0\nI5\nI8\ntp58\na(I0\nI10\nI1\ntp59\na(I0\nI2\nI8\ntp60\na(I0\nI3\nI5\ntp61\na(I0\nI5\nI10\ntp62\na(I0\nI10\nI3\ntp63\na(I0\nI2\nI10\ntp64\na(I0\nI5\nI4\ntp65\na(I0\nI10\nI5\ntp66\na(I0\nI5\nI6\ntp67\na(I0\nI10\nI7\ntp68\na(I0\nI10\nI9\ntp69\na(I0\nI4\nI11\ntp70\na(I0\nI5\nI2\ntp71\na(I0\nI7\nI11\ntp72\na(I0\nI10\nI11\ntp73\na(I0\nI2\nI2\ntp74\na(I0\nI4\nI9\ntp75\na(I0\nI7\nI9\ntp76\na(I0\nI2\nI4\ntp77\na(I0\nI7\nI7\ntp78\na(I0\nI1\nI9\ntp79\na(I0\nI2\nI6\ntp80\na(I0\nI8\nI11\ntp81\na(I0\nI7\nI5\ntp82\na(I0\nI9\nI2\ntp83\na(I0\nI1\nI11\ntp84\na(I0\nI4\nI3\ntp85\na(I0\nI8\nI9\ntp86\na(I0\nI7\nI3\ntp87\na(I0\nI9\nI4\ntp88\na(I0\nI4\nI1\ntp89\na(I0\nI8\nI7\ntp90\na(I0\nI7\nI1\ntp91\na(I0\nI9\nI6\ntp92\na(I0\nI4\nI7\ntp93\na(I0\nI8\nI5\ntp94\na(I0\nI9\nI8\ntp95\na(I0\nI1\nI1\ntp96\na(I0\nI3\nI10\ntp97\na(I0\nI4\nI5\ntp98\na(I0\nI6\nI8\ntp99\na(I0\nI8\nI3\ntp100\na(I0\nI9\nI10\ntp101\na(I0\nI11\nI3\ntp102\na(I0\nI1\nI3\ntp103\na(I0\nI3\nI8\ntp104\na(I0\nI6\nI10\ntp105\na(I0\nI8\nI1\ntp106\na(I0\nI11\nI1\ntp107\na(I0\nI1\nI5\ntp108\na(I0\nI6\nI4\ntp109\na(I0\nI11\nI7\ntp110\na(I0\nI1\nI7\ntp111\na(I0\nI6\nI6\ntp112\na(I0\nI11\nI5\ntp113\na(I0\nI3\nI2\ntp114\na(I0\nI11\nI11\ntp115\na(I0\nI6\nI2\ntp116\na(I0\nI11\nI9\ntp117\na(I0\nI3\nI6\ntp118\na(I0\nI2\nI9\ntp119\na(I0\nI3\nI4\ntp120\na(I0\nI5\nI9\ntp121\na(I0\nI2\nI11\ntp122\na(I0\nI5\nI11\ntp123\na(I0\nI10\nI2\ntp124\natp125\nRp126\nssI1\n(dp127\nI11\ng2\n((lp128\n(I1\nI2\nI8\ntp129\na(I1\nI11\nI10\ntp130\na(I1\nI11\nI8\ntp131\na(I1\nI11\nI6\ntp132\na(I1\nI2\nI2\ntp133\na(I1\nI11\nI2\ntp134\na(I1\nI2\nI6\ntp135\na(I1\nI5\nI1\ntp136\na(I1\nI8\nI10\ntp137\na(I1\nI5\nI3\ntp138\na(I1\nI8\nI8\ntp139\na(I1\nI6\nI8\ntp140\na(I1\nI9\nI1\ntp141\na(I1\nI1\nI8\ntp142\na(I1\nI6\nI10\ntp143\na(I1\nI9\nI3\ntp144\na(I1\nI9\nI5\ntp145\na(I1\nI6\nI6\ntp146\na(I1\nI9\nI7\ntp147\na(I1\nI4\nI11\ntp148\na(I1\nI9\nI11\ntp149\na(I1\nI1\nI2\ntp150\na(I1\nI4\nI9\ntp151\na(I1\nI4\nI7\ntp152\na(I1\nI2\nI9\ntp153\na(I1\nI1\nI6\ntp154\na(I1\nI11\nI11\ntp155\na(I1\nI4\nI5\ntp156\na(I1\nI2\nI11\ntp157\na(I1\nI7\nI3\ntp158\na(I1\nI11\nI9\ntp159\na(I1\nI4\nI3\ntp160\na(I1\nI7\nI1\ntp161\na(I1\nI11\nI7\ntp162\na(I1\nI4\nI1\ntp163\na(I1\nI11\nI5\ntp164\na(I1\nI2\nI1\ntp165\na(I1\nI11\nI3\ntp166\na(I1\nI2\nI3\ntp167\na(I1\nI11\nI1\ntp168\na(I1\nI2\nI5\ntp169\na(I1\nI8\nI7\ntp170\na(I1\nI8\nI5\ntp171\na(I1\nI8\nI11\ntp172\na(I1\nI1\nI9\ntp173\na(I1\nI6\nI9\ntp174\na(I1\nI6\nI11\ntp175\na(I1\nI9\nI2\ntp176\na(I1\nI6\nI5\ntp177\na(I1\nI6\nI7\ntp178\na(I1\nI6\nI1\ntp179\na(I1\nI4\nI10\ntp180\na(I1\nI9\nI8\ntp181\na(I1\nI1\nI3\ntp182\na(I1\nI6\nI3\ntp183\na(I1\nI4\nI8\ntp184\na(I1\nI9\nI10\ntp185\na(I1\nI1\nI5\ntp186\na(I1\nI4\nI6\ntp187\natp188\nRp189\nsI12\ng2\n((lp190\n(I1\nI3\nI2\ntp191\na(I1\nI4\nI4\ntp192\na(I1\nI5\nI2\ntp193\na(I1\nI3\nI1\ntp194\na(I1\nI10\nI2\ntp195\na(I1\nI8\nI9\ntp196\na(I1\nI10\nI7\ntp197\na(I1\nI7\nI10\ntp198\na(I1\nI10\nI3\ntp199\na(I1\nI10\nI4\ntp200\na(I1\nI7\nI9\ntp201\na(I1\nI10\nI5\ntp202\na(I1\nI10\nI6\ntp203\na(I1\nI7\nI7\ntp204\na(I1\nI3\nI11\ntp205\na(I1\nI1\nI10\ntp206\na(I1\nI3\nI10\ntp207\na(I1\nI5\nI9\ntp208\na(I1\nI11\nI4\ntp209\na(I1\nI10\nI9\ntp210\na(I1\nI8\nI2\ntp211\na(I1\nI3\nI9\ntp212\na(I1\nI7\nI8\ntp213\na(I1\nI10\nI10\ntp214\na(I1\nI8\nI3\ntp215\na(I1\nI7\nI4\ntp216\na(I1\nI5\nI11\ntp217\na(I1\nI7\nI6\ntp218\na(I1\nI5\nI10\ntp219\na(I1\nI2\nI4\ntp220\na(I1\nI8\nI1\ntp221\na(I1\nI5\nI5\ntp222\na(I1\nI10\nI8\ntp223\na(I1\nI8\nI6\ntp224\na(I1\nI5\nI4\ntp225\na(I1\nI3\nI7\ntp226\na(I1\nI6\nI2\ntp227\na(I1\nI7\nI2\ntp228\na(I1\nI5\nI7\ntp229\na(I1\nI3\nI6\ntp230\na(I1\nI2\nI7\ntp231\na(I1\nI8\nI4\ntp232\na(I1\nI5\nI6\ntp233\na(I1\nI3\nI5\ntp234\na(I1\nI9\nI6\ntp235\na(I1\nI3\nI4\ntp236\na(I1\nI3\nI3\ntp237\natp238\nRp239\nsI14\ng2\n((lp240\n(I1\nI1\nI11\ntp241\na(I1\nI1\nI1\ntp242\natp243\nRp244\nsI15\ng2\n((lp245\n(I1\nI7\nI11\ntp246\na(I1\nI7\nI5\ntp247\na(I1\nI5\nI8\ntp248\na(I1\nI9\nI9\ntp249\na(I1\nI10\nI1\ntp250\na(I1\nI3\nI8\ntp251\na(I1\nI10\nI11\ntp252\na(I1\nI2\nI10\ntp253\na(I1\nI4\nI2\ntp254\na(I1\nI1\nI7\ntp255\na(I1\nI6\nI4\ntp256\na(I1\nI1\nI4\ntp257\na(I1\nI9\nI4\ntp258\natp259\nRp260\nssI2\n(dp261\nI11\ng2\n((lp262\n(I2\nI5\nI11\ntp263\na(I2\nI7\nI4\ntp264\na(I2\nI7\nI6\ntp265\na(I2\nI5\nI3\ntp266\na(I2\nI6\nI1\ntp267\na(I2\nI5\nI1\ntp268\na(I2\nI11\nI7\ntp269\na(I2\nI5\nI7\ntp270\na(I2\nI3\nI8\ntp271\na(I2\nI11\nI1\ntp272\na(I2\nI5\nI5\ntp273\na(I2\nI3\nI10\ntp274\na(I2\nI11\nI3\ntp275\na(I2\nI6\nI11\ntp276\na(I2\nI9\nI6\ntp277\na(I2\nI9\nI4\ntp278\na(I2\nI11\nI9\ntp279\na(I2\nI2\nI11\ntp280\na(I2\nI11\nI11\ntp281\na(I2\nI1\nI7\ntp282\na(I2\nI10\nI6\ntp283\na(I2\nI1\nI5\ntp284\na(I2\nI10\nI4\ntp285\na(I2\nI7\nI11\ntp286\na(I2\nI2\nI3\ntp287\na(I2\nI1\nI3\ntp288\na(I2\nI2\nI1\ntp289\na(I2\nI2\nI7\ntp290\na(I2\nI7\nI1\ntp291\na(I2\nI5\nI10\ntp292\na(I2\nI2\nI5\ntp293\na(I2\nI7\nI3\ntp294\na(I2\nI5\nI8\ntp295\na(I2\nI7\nI5\ntp296\na(I2\nI7\nI7\ntp297\na(I2\nI11\nI4\ntp298\na(I2\nI11\nI6\ntp299\na(I2\nI5\nI6\ntp300\na(I2\nI5\nI4\ntp301\na(I2\nI3\nI11\ntp302\na(I2\nI6\nI10\ntp303\na(I2\nI3\nI5\ntp304\na(I2\nI9\nI7\ntp305\na(I2\nI3\nI7\ntp306\na(I2\nI4\nI1\ntp307\na(I2\nI3\nI1\ntp308\na(I2\nI1\nI10\ntp309\na(I2\nI10\nI3\ntp310\na(I2\nI9\nI3\ntp311\na(I2\nI2\nI10\ntp312\na(I2\nI3\nI3\ntp313\na(I2\nI1\nI8\ntp314\na(I2\nI10\nI1\ntp315\na(I2\nI9\nI1\ntp316\na(I2\nI2\nI8\ntp317\na(I2\nI10\nI7\ntp318\na(I2\nI7\nI8\ntp319\na(I2\nI7\nI10\ntp320\na(I2\nI10\nI11\ntp321\na(I2\nI9\nI11\ntp322\na(I2\nI10\nI9\ntp323\na(I2\nI9\nI9\ntp324\natp325\nRp326\nsI12\ng2\n((lp327\n(I2\nI4\nI10\ntp328\na(I2\nI6\nI9\ntp329\na(I2\nI9\nI10\ntp330\na(I2\nI2\nI4\ntp331\na(I2\nI6\nI7\ntp332\na(I2\nI8\nI2\ntp333\na(I2\nI5\nI9\ntp334\na(I2\nI4\nI7\ntp335\na(I2\nI10\nI2\ntp336\na(I2\nI10\nI8\ntp337\na(I2\nI4\nI5\ntp338\na(I2\nI9\nI2\ntp339\na(I2\nI6\nI5\ntp340\na(I2\nI3\nI2\ntp341\na(I2\nI4\nI3\ntp342\na(I2\nI4\nI2\ntp343\na(I2\nI2\nI9\ntp344\na(I2\nI3\nI6\ntp345\na(I2\nI8\nI9\ntp346\na(I2\nI6\nI4\ntp347\na(I2\nI8\nI8\ntp348\na(I2\nI6\nI3\ntp349\na(I2\nI1\nI6\ntp350\na(I2\nI4\nI6\ntp351\na(I2\nI6\nI2\ntp352\na(I2\nI10\nI10\ntp353\na(I2\nI8\nI10\ntp354\na(I2\nI6\nI8\ntp355\na(I2\nI4\nI9\ntp356\na(I2\nI9\nI5\ntp357\na(I2\nI1\nI2\ntp358\na(I2\nI4\nI8\ntp359\na(I2\nI11\nI10\ntp360\na(I2\nI6\nI6\ntp361\na(I2\nI8\nI5\ntp362\na(I2\nI9\nI8\ntp363\na(I2\nI3\nI9\ntp364\na(I2\nI8\nI4\ntp365\na(I2\nI10\nI5\ntp366\na(I2\nI4\nI4\ntp367\na(I2\nI8\nI7\ntp368\na(I2\nI4\nI11\ntp369\na(I2\nI8\nI6\ntp370\na(I2\nI3\nI4\ntp371\na(I2\nI8\nI1\ntp372\natp373\nRp374\nsI14\ng2\n((lp375\n(I2\nI1\nI1\ntp376\na(I2\nI1\nI11\ntp377\natp378\nRp379\nsI15\ng2\n((lp380\n(I2\nI2\nI2\ntp381\na(I2\nI8\nI11\ntp382\na(I2\nI11\nI2\ntp383\na(I2\nI1\nI4\ntp384\na(I2\nI7\nI9\ntp385\na(I2\nI8\nI3\ntp386\na(I2\nI7\nI2\ntp387\na(I2\nI1\nI9\ntp388\na(I2\nI11\nI8\ntp389\na(I2\nI11\nI5\ntp390\na(I2\nI5\nI2\ntp391\na(I2\nI2\nI6\ntp392\natp393\nRp394\nssI3\n(dp395\nI11\ng2\n((lp396\n(I3\nI1\nI10\ntp397\na(I3\nI6\nI11\ntp398\na(I3\nI7\nI4\ntp399\na(I3\nI6\nI9\ntp400\na(I3\nI1\nI6\ntp401\na(I3\nI7\nI6\ntp402\na(I3\nI1\nI4\ntp403\na(I3\nI2\nI2\ntp404\na(I3\nI1\nI2\ntp405\na(I3\nI7\nI2\ntp406\na(I3\nI2\nI6\ntp407\na(I3\nI9\nI7\ntp408\na(I3\nI2\nI4\ntp409\na(I3\nI9\nI3\ntp410\na(I3\nI10\nI3\ntp411\na(I3\nI4\nI5\ntp412\na(I3\nI9\nI1\ntp413\na(I3\nI10\nI1\ntp414\na(I3\nI4\nI7\ntp415\na(I3\nI10\nI7\ntp416\na(I3\nI3\nI1\ntp417\na(I3\nI4\nI1\ntp418\na(I3\nI3\nI3\ntp419\na(I3\nI4\nI3\ntp420\na(I3\nI9\nI11\ntp421\na(I3\nI11\nI10\ntp422\na(I3\nI3\nI5\ntp423\na(I3\nI6\nI6\ntp424\na(I3\nI9\nI9\ntp425\na(I3\nI3\nI7\ntp426\na(I3\nI6\nI4\ntp427\na(I3\nI3\nI9\ntp428\na(I3\nI4\nI9\ntp429\na(I3\nI6\nI2\ntp430\na(I3\nI3\nI11\ntp431\na(I3\nI5\nI2\ntp432\na(I3\nI4\nI11\ntp433\na(I3\nI11\nI4\ntp434\na(I3\nI5\nI6\ntp435\na(I3\nI8\nI9\ntp436\na(I3\nI11\nI6\ntp437\na(I3\nI5\nI4\ntp438\na(I3\nI8\nI11\ntp439\na(I3\nI1\nI9\ntp440\na(I3\nI7\nI5\ntp441\na(I3\nI1\nI7\ntp442\na(I3\nI7\nI7\ntp443\na(I3\nI1\nI5\ntp444\na(I3\nI7\nI1\ntp445\na(I3\nI1\nI3\ntp446\na(I3\nI2\nI3\ntp447\na(I3\nI7\nI3\ntp448\na(I3\nI1\nI1\ntp449\na(I3\nI2\nI1\ntp450\na(I3\nI2\nI7\ntp451\na(I3\nI9\nI6\ntp452\na(I3\nI2\nI5\ntp453\na(I3\nI7\nI9\ntp454\na(I3\nI9\nI4\ntp455\na(I3\nI4\nI4\ntp456\na(I3\nI7\nI11\ntp457\na(I3\nI4\nI6\ntp458\na(I3\nI10\nI6\ntp459\na(I3\nI11\nI9\ntp460\na(I3\nI10\nI4\ntp461\na(I3\nI4\nI2\ntp462\na(I3\nI11\nI11\ntp463\na(I3\nI3\nI2\ntp464\na(I3\nI3\nI4\ntp465\na(I3\nI6\nI7\ntp466\na(I3\nI3\nI6\ntp467\na(I3\nI6\nI5\ntp468\na(I3\nI11\nI1\ntp469\na(I3\nI5\nI3\ntp470\na(I3\nI4\nI10\ntp471\na(I3\nI6\nI3\ntp472\na(I3\nI11\nI3\ntp473\na(I3\nI3\nI10\ntp474\na(I3\nI5\nI1\ntp475\na(I3\nI6\nI1\ntp476\na(I3\nI5\nI7\ntp477\na(I3\nI11\nI7\ntp478\na(I3\nI5\nI5\ntp479\natp480\nRp481\nsI12\ng2\n((lp482\n(I3\nI8\nI10\ntp483\na(I3\nI5\nI10\ntp484\na(I3\nI6\nI8\ntp485\na(I3\nI5\nI9\ntp486\na(I3\nI11\nI8\ntp487\na(I3\nI10\nI5\ntp488\na(I3\nI5\nI8\ntp489\na(I3\nI8\nI4\ntp490\na(I3\nI9\nI10\ntp491\na(I3\nI8\nI1\ntp492\na(I3\nI10\nI10\ntp493\na(I3\nI8\nI2\ntp494\na(I3\nI10\nI11\ntp495\na(I3\nI8\nI3\ntp496\na(I3\nI10\nI8\ntp497\na(I3\nI4\nI8\ntp498\na(I3\nI8\nI5\ntp499\na(I3\nI3\nI8\ntp500\na(I3\nI8\nI6\ntp501\na(I3\nI8\nI7\ntp502\na(I3\nI11\nI2\ntp503\na(I3\nI9\nI5\ntp504\na(I3\nI10\nI2\ntp505\na(I3\nI7\nI8\ntp506\na(I3\nI2\nI11\ntp507\na(I3\nI8\nI8\ntp508\na(I3\nI2\nI8\ntp509\na(I3\nI7\nI10\ntp510\na(I3\nI2\nI10\ntp511\natp512\nRp513\nsI14\ng2\n((lp514\n(I3\nI1\nI11\ntp515\natp516\nRp517\nsI15\ng2\n((lp518\n(I3\nI6\nI10\ntp519\na(I3\nI11\nI5\ntp520\na(I3\nI10\nI9\ntp521\na(I3\nI5\nI11\ntp522\na(I3\nI1\nI8\ntp523\na(I3\nI9\nI2\ntp524\na(I3\nI9\nI8\ntp525\na(I3\nI2\nI9\ntp526\natp527\nRp528\nssI4\n(dp529\nI11\ng2\n((lp530\n(I4\nI2\nI2\ntp531\na(I4\nI7\nI10\ntp532\na(I4\nI7\nI8\ntp533\na(I4\nI1\nI5\ntp534\na(I4\nI9\nI8\ntp535\na(I4\nI6\nI1\ntp536\na(I4\nI1\nI1\ntp537\na(I4\nI9\nI10\ntp538\na(I4\nI9\nI4\ntp539\na(I4\nI9\nI6\ntp540\na(I4\nI1\nI9\ntp541\na(I4\nI9\nI2\ntp542\na(I4\nI11\nI11\ntp543\na(I4\nI4\nI11\ntp544\na(I4\nI11\nI5\ntp545\na(I4\nI5\nI2\ntp546\na(I4\nI3\nI10\ntp547\na(I4\nI11\nI3\ntp548\na(I4\nI5\nI4\ntp549\na(I4\nI2\nI5\ntp550\na(I4\nI3\nI8\ntp551\na(I4\nI8\nI1\ntp552\na(I4\nI5\nI6\ntp553\na(I4\nI5\nI8\ntp554\na(I4\nI2\nI1\ntp555\na(I4\nI8\nI5\ntp556\na(I4\nI10\nI8\ntp557\na(I4\nI5\nI10\ntp558\na(I4\nI10\nI10\ntp559\na(I4\nI4\nI1\ntp560\na(I4\nI7\nI11\ntp561\na(I4\nI1\nI4\ntp562\na(I4\nI1\nI6\ntp563\na(I4\nI1\nI2\ntp564\na(I4\nI9\nI11\ntp565\na(I4\nI6\nI2\ntp566\na(I4\nI9\nI5\ntp567\na(I4\nI6\nI4\ntp568\na(I4\nI6\nI6\ntp569\na(I4\nI1\nI8\ntp570\na(I4\nI9\nI1\ntp571\na(I4\nI11\nI10\ntp572\na(I4\nI1\nI10\ntp573\na(I4\nI11\nI8\ntp574\na(I4\nI8\nI8\ntp575\na(I4\nI11\nI6\ntp576\na(I4\nI11\nI4\ntp577\na(I4\nI5\nI1\ntp578\na(I4\nI4\nI10\ntp579\na(I4\nI11\nI2\ntp580\na(I4\nI3\nI11\ntp581\na(I4\nI8\nI2\ntp582\na(I4\nI4\nI8\ntp583\na(I4\nI2\nI4\ntp584\na(I4\nI4\nI6\ntp585\na(I4\nI2\nI6\ntp586\na(I4\nI8\nI6\ntp587\na(I4\nI4\nI4\ntp588\na(I4\nI8\nI4\ntp589\na(I4\nI10\nI11\ntp590\na(I4\nI4\nI2\ntp591\na(I4\nI5\nI11\ntp592\natp593\nRp594\nsI12\ng2\n((lp595\n(I4\nI7\nI2\ntp596\na(I4\nI3\nI5\ntp597\na(I4\nI10\nI5\ntp598\na(I4\nI3\nI2\ntp599\na(I4\nI10\nI4\ntp600\na(I4\nI8\nI11\ntp601\na(I4\nI7\nI7\ntp602\na(I4\nI10\nI7\ntp603\na(I4\nI8\nI10\ntp604\na(I4\nI9\nI3\ntp605\na(I4\nI7\nI4\ntp606\na(I4\nI8\nI9\ntp607\na(I4\nI11\nI9\ntp608\na(I4\nI10\nI1\ntp609\na(I4\nI5\nI5\ntp610\na(I4\nI2\nI8\ntp611\na(I4\nI1\nI3\ntp612\na(I4\nI10\nI3\ntp613\na(I4\nI6\nI5\ntp614\na(I4\nI2\nI11\ntp615\na(I4\nI10\nI2\ntp616\na(I4\nI6\nI9\ntp617\na(I4\nI7\nI9\ntp618\na(I4\nI6\nI11\ntp619\na(I4\nI4\nI9\ntp620\na(I4\nI7\nI5\ntp621\na(I4\nI9\nI9\ntp622\na(I4\nI5\nI3\ntp623\na(I4\nI7\nI3\ntp624\na(I4\nI4\nI7\ntp625\na(I4\nI3\nI9\ntp626\na(I4\nI2\nI3\ntp627\na(I4\nI2\nI7\ntp628\na(I4\nI2\nI9\ntp629\na(I4\nI8\nI7\ntp630\na(I4\nI4\nI5\ntp631\na(I4\nI7\nI6\ntp632\na(I4\nI3\nI6\ntp633\na(I4\nI4\nI3\ntp634\na(I4\nI8\nI3\ntp635\na(I4\nI3\nI3\ntp636\na(I4\nI3\nI7\ntp637\na(I4\nI6\nI7\ntp638\na(I4\nI9\nI7\ntp639\natp640\nRp641\nsI14\ng2\n((lp642\n(I4\nI1\nI11\ntp643\na(I4\nI11\nI1\ntp644\natp645\nRp646\nsI15\ng2\n((lp647\n(I4\nI3\nI4\ntp648\na(I4\nI6\nI3\ntp649\na(I4\nI5\nI7\ntp650\na(I4\nI1\nI7\ntp651\na(I4\nI11\nI7\ntp652\na(I4\nI7\nI1\ntp653\na(I4\nI10\nI9\ntp654\na(I4\nI6\nI8\ntp655\na(I4\nI5\nI9\ntp656\na(I4\nI3\nI1\ntp657\na(I4\nI10\nI6\ntp658\na(I4\nI2\nI10\ntp659\na(I4\nI6\nI10\ntp660\natp661\nRp662\nssI5\n(dp663\nI11\ng2\n((lp664\n(I5\nI2\nI7\ntp665\na(I5\nI5\nI1\ntp666\na(I5\nI2\nI1\ntp667\na(I5\nI10\nI10\ntp668\na(I5\nI5\nI3\ntp669\na(I5\nI2\nI3\ntp670\na(I5\nI5\nI5\ntp671\na(I5\nI5\nI7\ntp672\na(I5\nI5\nI9\ntp673\na(I5\nI2\nI9\ntp674\na(I5\nI11\nI11\ntp675\na(I5\nI8\nI11\ntp676\na(I5\nI5\nI11\ntp677\na(I5\nI2\nI11\ntp678\na(I5\nI11\nI9\ntp679\na(I5\nI8\nI9\ntp680\na(I5\nI8\nI7\ntp681\na(I5\nI7\nI11\ntp682\na(I5\nI8\nI5\ntp683\na(I5\nI11\nI3\ntp684\na(I5\nI7\nI9\ntp685\na(I5\nI8\nI3\ntp686\na(I5\nI1\nI5\ntp687\na(I5\nI11\nI1\ntp688\na(I5\nI7\nI7\ntp689\na(I5\nI8\nI1\ntp690\na(I5\nI1\nI7\ntp691\na(I5\nI11\nI7\ntp692\na(I5\nI7\nI5\ntp693\na(I5\nI1\nI1\ntp694\na(I5\nI7\nI3\ntp695\na(I5\nI4\nI3\ntp696\na(I5\nI1\nI3\ntp697\na(I5\nI7\nI1\ntp698\na(I5\nI4\nI1\ntp699\na(I5\nI4\nI7\ntp700\na(I5\nI4\nI5\ntp701\na(I5\nI1\nI9\ntp702\na(I5\nI4\nI11\ntp703\na(I5\nI4\nI9\ntp704\na(I5\nI10\nI9\ntp705\na(I5\nI2\nI2\ntp706\na(I5\nI10\nI11\ntp707\na(I5\nI5\nI2\ntp708\na(I5\nI10\nI5\ntp709\na(I5\nI10\nI7\ntp710\na(I5\nI10\nI1\ntp711\na(I5\nI2\nI10\ntp712\na(I5\nI11\nI10\ntp713\na(I5\nI10\nI3\ntp714\na(I5\nI3\nI7\ntp715\na(I5\nI3\nI5\ntp716\na(I5\nI6\nI5\ntp717\na(I5\nI6\nI7\ntp718\na(I5\nI6\nI9\ntp719\na(I5\nI4\nI2\ntp720\na(I5\nI6\nI11\ntp721\na(I5\nI1\nI2\ntp722\na(I5\nI9\nI5\ntp723\na(I5\nI9\nI7\ntp724\na(I5\nI9\nI1\ntp725\na(I5\nI9\nI3\ntp726\na(I5\nI2\nI5\ntp727\na(I5\nI1\nI10\ntp728\natp729\nRp730\nsI12\ng2\n((lp731\n(I5\nI6\nI2\ntp732\na(I5\nI2\nI6\ntp733\na(I5\nI3\nI4\ntp734\na(I5\nI7\nI10\ntp735\na(I5\nI8\nI2\ntp736\na(I5\nI6\nI3\ntp737\na(I5\nI10\nI6\ntp738\na(I5\nI6\nI4\ntp739\na(I5\nI11\nI6\ntp740\na(I5\nI3\nI10\ntp741\na(I5\nI7\nI8\ntp742\na(I5\nI3\nI9\ntp743\na(I5\nI3\nI8\ntp744\na(I5\nI7\nI6\ntp745\na(I5\nI1\nI6\ntp746\na(I5\nI6\nI8\ntp747\na(I5\nI8\nI6\ntp748\na(I5\nI9\nI9\ntp749\na(I5\nI7\nI4\ntp750\na(I5\nI5\nI4\ntp751\na(I5\nI6\nI10\ntp752\na(I5\nI5\nI6\ntp753\na(I5\nI11\nI4\ntp754\na(I5\nI9\nI11\ntp755\na(I5\nI7\nI2\ntp756\na(I5\nI9\nI8\ntp757\na(I5\nI9\nI10\ntp758\na(I5\nI4\nI8\ntp759\na(I5\nI2\nI8\ntp760\na(I5\nI8\nI10\ntp761\na(I5\nI11\nI2\ntp762\na(I5\nI5\nI8\ntp763\na(I5\nI3\nI3\ntp764\na(I5\nI10\nI2\ntp765\na(I5\nI3\nI2\ntp766\na(I5\nI4\nI4\ntp767\na(I5\nI5\nI10\ntp768\na(I5\nI6\nI6\ntp769\na(I5\nI11\nI8\ntp770\na(I5\nI4\nI10\ntp771\na(I5\nI2\nI4\ntp772\na(I5\nI3\nI6\ntp773\na(I5\nI8\nI4\ntp774\na(I5\nI9\nI2\ntp775\na(I5\nI10\nI4\ntp776\na(I5\nI9\nI6\ntp777\natp778\nRp779\nsI14\ng2\n((lp780\n(I5\nI1\nI11\ntp781\na(I5\nI11\nI5\ntp782\natp783\nRp784\nsI15\ng2\n((lp785\n(I5\nI3\nI1\ntp786\na(I5\nI3\nI11\ntp787\na(I5\nI1\nI8\ntp788\na(I5\nI10\nI8\ntp789\na(I5\nI9\nI4\ntp790\na(I5\nI4\nI6\ntp791\na(I5\nI6\nI1\ntp792\na(I5\nI1\nI4\ntp793\na(I5\nI8\nI8\ntp794\natp795\nRp796\nssI6\n(dp797\nI11\ng2\n((lp798\n(I6\nI8\nI9\ntp799\na(I6\nI6\nI11\ntp800\na(I6\nI7\nI2\ntp801\na(I6\nI5\nI11\ntp802\na(I6\nI8\nI11\ntp803\na(I6\nI6\nI9\ntp804\na(I6\nI5\nI9\ntp805\na(I6\nI5\nI7\ntp806\na(I6\nI3\nI9\ntp807\na(I6\nI10\nI11\ntp808\na(I6\nI5\nI5\ntp809\na(I6\nI3\nI11\ntp810\na(I6\nI6\nI3\ntp811\na(I6\nI5\nI3\ntp812\na(I6\nI6\nI1\ntp813\na(I6\nI5\nI1\ntp814\na(I6\nI11\nI6\ntp815\na(I6\nI6\nI7\ntp816\na(I6\nI10\nI5\ntp817\na(I6\nI11\nI8\ntp818\na(I6\nI3\nI1\ntp819\na(I6\nI6\nI5\ntp820\na(I6\nI10\nI3\ntp821\na(I6\nI9\nI3\ntp822\na(I6\nI3\nI3\ntp823\na(I6\nI10\nI1\ntp824\na(I6\nI9\nI1\ntp825\na(I6\nI3\nI5\ntp826\na(I6\nI4\nI4\ntp827\na(I6\nI2\nI6\ntp828\na(I6\nI3\nI7\ntp829\na(I6\nI4\nI6\ntp830\na(I6\nI9\nI5\ntp831\na(I6\nI2\nI4\ntp832\na(I6\nI1\nI2\ntp833\na(I6\nI9\nI11\ntp834\na(I6\nI2\nI2\ntp835\na(I6\nI4\nI2\ntp836\na(I6\nI9\nI9\ntp837\na(I6\nI1\nI6\ntp838\na(I6\nI1\nI4\ntp839\na(I6\nI7\nI9\ntp840\na(I6\nI7\nI11\ntp841\na(I6\nI7\nI5\ntp842\na(I6\nI7\nI7\ntp843\na(I6\nI7\nI1\ntp844\na(I6\nI7\nI3\ntp845\na(I6\nI5\nI6\ntp846\na(I6\nI5\nI4\ntp847\na(I6\nI11\nI1\ntp848\na(I6\nI5\nI2\ntp849\na(I6\nI11\nI3\ntp850\na(I6\nI6\nI2\ntp851\na(I6\nI10\nI6\ntp852\na(I6\nI6\nI6\ntp853\na(I6\nI4\nI9\ntp854\na(I6\nI11\nI9\ntp855\na(I6\nI3\nI2\ntp856\na(I6\nI1\nI11\ntp857\na(I6\nI6\nI4\ntp858\na(I6\nI4\nI11\ntp859\na(I6\nI11\nI11\ntp860\na(I6\nI3\nI4\ntp861\na(I6\nI1\nI9\ntp862\na(I6\nI4\nI5\ntp863\na(I6\nI9\nI6\ntp864\na(I6\nI2\nI7\ntp865\na(I6\nI3\nI6\ntp866\na(I6\nI4\nI7\ntp867\na(I6\nI2\nI5\ntp868\na(I6\nI4\nI1\ntp869\na(I6\nI2\nI3\ntp870\na(I6\nI1\nI3\ntp871\na(I6\nI4\nI3\ntp872\na(I6\nI9\nI8\ntp873\na(I6\nI2\nI1\ntp874\na(I6\nI1\nI1\ntp875\na(I6\nI1\nI7\ntp876\na(I6\nI1\nI5\ntp877\na(I6\nI2\nI11\ntp878\na(I6\nI7\nI4\ntp879\na(I6\nI2\nI9\ntp880\na(I6\nI7\nI6\ntp881\natp882\nRp883\nsI12\ng2\n((lp884\n(I6\nI8\nI6\ntp885\na(I6\nI5\nI10\ntp886\na(I6\nI8\nI8\ntp887\na(I6\nI4\nI10\ntp888\na(I6\nI6\nI10\ntp889\na(I6\nI5\nI8\ntp890\na(I6\nI8\nI10\ntp891\na(I6\nI6\nI8\ntp892\na(I6\nI9\nI10\ntp893\na(I6\nI9\nI2\ntp894\na(I6\nI3\nI8\ntp895\na(I6\nI8\nI4\ntp896\na(I6\nI10\nI10\ntp897\na(I6\nI10\nI9\ntp898\na(I6\nI7\nI8\ntp899\na(I6\nI8\nI1\ntp900\na(I6\nI10\nI8\ntp901\na(I6\nI11\nI4\ntp902\na(I6\nI10\nI7\ntp903\na(I6\nI7\nI10\ntp904\na(I6\nI8\nI3\ntp905\na(I6\nI11\nI7\ntp906\na(I6\nI8\nI2\ntp907\na(I6\nI2\nI10\ntp908\na(I6\nI8\nI5\ntp909\na(I6\nI10\nI4\ntp910\na(I6\nI1\nI10\ntp911\na(I6\nI4\nI8\ntp912\na(I6\nI2\nI8\ntp913\na(I6\nI8\nI7\ntp914\na(I6\nI10\nI2\ntp915\natp916\nRp917\nsI14\ng2\n((lp918\n(I6\nI11\nI5\ntp919\natp920\nRp921\nsI15\ng2\n((lp922\n(I6\nI3\nI10\ntp923\na(I6\nI1\nI8\ntp924\na(I6\nI9\nI7\ntp925\na(I6\nI11\nI10\ntp926\na(I6\nI9\nI4\ntp927\na(I6\nI11\nI2\ntp928\natp929\nRp930\nss.'
p4
s.